
main.axf:     file format elf32-littlearm


Disassembly of section .text:

00000000 <__cs3_interrupt_vector>:
       0:	18 f0 9f e5 18 f0 9f e5 18 f0 9f e5 18 f0 9f e5     ................
      10:	18 f0 9f e5 18 f0 9f e5 18 f0 9f e5 18 f0 9f e5     ................
      20:	b0 08 00 00 b4 08 00 00 b8 08 00 00 bc 08 00 00     ................
      30:	c0 08 00 00 18 14 00 00 bc 09 00 00 c4 08 00 00     ................

00000040 <__cs3_reset_generic>:
      40:	ea000026 	b	e0 <__cs3_start_asm_sim>

00000044 <__cs3_start_c>:
      44:	e59f608c 	ldr	r6, [pc, #140]	; d8 <__cs3_start_c+0x94>
      48:	e3560000 	cmp	r6, #0
      4c:	e92d4080 	push	{r7, lr}
      50:	e2466001 	sub	r6, r6, #1
      54:	0a00001e 	beq	d4 <__cs3_start_c+0x90>
      58:	e59f507c 	ldr	r5, [pc, #124]	; dc <__cs3_start_c+0x98>
      5c:	e3a00000 	mov	r0, #0
      60:	e3a01000 	mov	r1, #0
      64:	e515200c 	ldr	r2, [r5, #-12]
      68:	e515e010 	ldr	lr, [r5, #-16]
      6c:	e5154008 	ldr	r4, [r5, #-8]
      70:	e15e0002 	cmp	lr, r2
      74:	00822004 	addeq	r2, r2, r4
      78:	0a000009 	beq	a4 <__cs3_start_c+0x60>
      7c:	e3540000 	cmp	r4, #0
      80:	0a000007 	beq	a4 <__cs3_start_c+0x60>
      84:	e1a07002 	mov	r7, r2
      88:	e1a0c002 	mov	ip, r2
      8c:	e8be000c 	ldm	lr!, {r2, r3}
      90:	e8ac000c 	stmia	ip!, {r2, r3}
      94:	e067300c 	rsb	r3, r7, ip
      98:	e1540003 	cmp	r4, r3
      9c:	e1a0200c 	mov	r2, ip
      a0:	1afffff9 	bne	8c <__cs3_start_c+0x48>
      a4:	e515e004 	ldr	lr, [r5, #-4]
      a8:	e35e0000 	cmp	lr, #0
      ac:	11a03002 	movne	r3, r2
      b0:	0a000003 	beq	c4 <__cs3_start_c+0x80>
      b4:	e8a30003 	stmia	r3!, {r0, r1}
      b8:	e062c003 	rsb	ip, r2, r3
      bc:	e15e000c 	cmp	lr, ip
      c0:	1afffffb 	bne	b4 <__cs3_start_c+0x70>
      c4:	e2466001 	sub	r6, r6, #1
      c8:	e3760001 	cmn	r6, #1
      cc:	e2855014 	add	r5, r5, #20
      d0:	1affffe3 	bne	64 <__cs3_start_c+0x20>
      d4:	eb0004b6 	bl	13b4 <__cs3_premain>
      d8:	00000001 	.word	0x00000001
      dc:	00001558 	.word	0x00001558

000000e0 <__cs3_start_asm_sim>:
      e0:	e28f103c 	add	r1, pc, #60	; 0x3c
      e4:	e3a00016 	mov	r0, #22
      e8:	ef123456 	svc	0x00123456
      ec:	e3500000 	cmp	r0, #0
      f0:	ba000008 	blt	118 <__cs3_start_asm_sim+0x38>
      f4:	e59f2028 	ldr	r2, [pc, #40]	; 124 <__cs3_heap_start_ptr>
      f8:	e59fd01c 	ldr	sp, [pc, #28]	; 11c <__cs3_start_asm_sim+0x3c>
      fc:	e5920008 	ldr	r0, [r2, #8]
     100:	e3500000 	cmp	r0, #0
     104:	11a0d000 	movne	sp, r0
     108:	e59f1010 	ldr	r1, [pc, #16]	; 120 <__cs3_start_asm_sim+0x40>
     10c:	e5920004 	ldr	r0, [r2, #4]
     110:	e3500000 	cmp	r0, #0
     114:	15810000 	strne	r0, [r1]
     118:	eaffffc9 	b	44 <__cs3_start_c>
     11c:	3ffffff8 	.word	0x3ffffff8
     120:	00001990 	.word	0x00001990

00000124 <__cs3_heap_start_ptr>:
     124:	00001cc8 	.word	0x00001cc8

00000128 <_start>:
     128:	e51fd000 	ldr	sp, [pc, #-0]	; 130 <_start+0x8>
     12c:	eaffffc4 	b	44 <__cs3_start_c>
     130:	3ffffff8 	.word	0x3ffffff8

00000134 <deregister_tm_clones>:
     134:	e92d4008 	push	{r3, lr}
     138:	e59f002c 	ldr	r0, [pc, #44]	; 16c <deregister_tm_clones+0x38>
     13c:	e59f302c 	ldr	r3, [pc, #44]	; 170 <deregister_tm_clones+0x3c>
     140:	e0603003 	rsb	r3, r0, r3
     144:	e3530006 	cmp	r3, #6
     148:	8a000001 	bhi	154 <deregister_tm_clones+0x20>
     14c:	e8bd4008 	pop	{r3, lr}
     150:	e12fff1e 	bx	lr
     154:	e59f3018 	ldr	r3, [pc, #24]	; 174 <deregister_tm_clones+0x40>
     158:	e3530000 	cmp	r3, #0
     15c:	0afffffa 	beq	14c <deregister_tm_clones+0x18>
     160:	e1a0e00f 	mov	lr, pc
     164:	e12fff13 	bx	r3
     168:	eafffff7 	b	14c <deregister_tm_clones+0x18>
     16c:	00001998 	.word	0x00001998
     170:	0000199b 	.word	0x0000199b
     174:	00000000 	.word	0x00000000

00000178 <register_tm_clones>:
     178:	e92d4008 	push	{r3, lr}
     17c:	e59f0034 	ldr	r0, [pc, #52]	; 1b8 <register_tm_clones+0x40>
     180:	e59f3034 	ldr	r3, [pc, #52]	; 1bc <register_tm_clones+0x44>
     184:	e0603003 	rsb	r3, r0, r3
     188:	e1a03143 	asr	r3, r3, #2
     18c:	e0833fa3 	add	r3, r3, r3, lsr #31
     190:	e1b010c3 	asrs	r1, r3, #1
     194:	1a000001 	bne	1a0 <register_tm_clones+0x28>
     198:	e8bd4008 	pop	{r3, lr}
     19c:	e12fff1e 	bx	lr
     1a0:	e59f2018 	ldr	r2, [pc, #24]	; 1c0 <register_tm_clones+0x48>
     1a4:	e3520000 	cmp	r2, #0
     1a8:	0afffffa 	beq	198 <register_tm_clones+0x20>
     1ac:	e1a0e00f 	mov	lr, pc
     1b0:	e12fff12 	bx	r2
     1b4:	eafffff7 	b	198 <register_tm_clones+0x20>
     1b8:	00001998 	.word	0x00001998
     1bc:	00001998 	.word	0x00001998
     1c0:	00000000 	.word	0x00000000

000001c4 <__do_global_dtors_aux>:
     1c4:	e92d4010 	push	{r4, lr}
     1c8:	e59f402c 	ldr	r4, [pc, #44]	; 1fc <__do_global_dtors_aux+0x38>
     1cc:	e5d43000 	ldrb	r3, [r4]
     1d0:	e3530000 	cmp	r3, #0
     1d4:	1a000006 	bne	1f4 <__do_global_dtors_aux+0x30>
     1d8:	ebffffd5 	bl	134 <deregister_tm_clones>
     1dc:	e59f301c 	ldr	r3, [pc, #28]	; 200 <__do_global_dtors_aux+0x3c>
     1e0:	e3530000 	cmp	r3, #0
     1e4:	159f0018 	ldrne	r0, [pc, #24]	; 204 <__do_global_dtors_aux+0x40>
     1e8:	1320f000 	nopne	{0}
     1ec:	e3a03001 	mov	r3, #1
     1f0:	e5c43000 	strb	r3, [r4]
     1f4:	e8bd4010 	pop	{r4, lr}
     1f8:	e12fff1e 	bx	lr
     1fc:	00001998 	.word	0x00001998
     200:	00000000 	.word	0x00000000
     204:	000014a4 	.word	0x000014a4

00000208 <frame_dummy>:
     208:	e92d4008 	push	{r3, lr}
     20c:	e59f3034 	ldr	r3, [pc, #52]	; 248 <frame_dummy+0x40>
     210:	e3530000 	cmp	r3, #0
     214:	159f0030 	ldrne	r0, [pc, #48]	; 24c <frame_dummy+0x44>
     218:	159f1030 	ldrne	r1, [pc, #48]	; 250 <frame_dummy+0x48>
     21c:	1320f000 	nopne	{0}
     220:	e59f002c 	ldr	r0, [pc, #44]	; 254 <frame_dummy+0x4c>
     224:	e5903000 	ldr	r3, [r0]
     228:	e3530000 	cmp	r3, #0
     22c:	0a000003 	beq	240 <frame_dummy+0x38>
     230:	e59f3020 	ldr	r3, [pc, #32]	; 258 <frame_dummy+0x50>
     234:	e3530000 	cmp	r3, #0
     238:	11a0e00f 	movne	lr, pc
     23c:	112fff13 	bxne	r3
     240:	e8bd4008 	pop	{r3, lr}
     244:	eaffffcb 	b	178 <register_tm_clones>
     248:	00000000 	.word	0x00000000
     24c:	000014a4 	.word	0x000014a4
     250:	0000199c 	.word	0x0000199c
     254:	00001558 	.word	0x00001558
     258:	00000000 	.word	0x00000000

0000025c <map>:
    for(i = 0; i < VGA_WIDTH_BINS*VGA_HEIGHT_BINS; i++) {
        colour_buffer[i] = colours[i%7];
    }
}

int map(int value, int from_low, int from_high, int to_low, int to_high) {
     25c:	e92d41f0 	push	{r4, r5, r6, r7, r8, lr}
     260:	e1a05001 	mov	r5, r1
     264:	e1a08002 	mov	r8, r2
     268:	e1a04003 	mov	r4, r3
    float slope = (float)(to_high - to_low)/(float)(from_high - from_low);
    return to_low + (int)(slope*(value - from_low));
     26c:	e0610000 	rsb	r0, r1, r0
     270:	eb000278 	bl	c58 <__aeabi_i2f>
     274:	e1a06000 	mov	r6, r0
        colour_buffer[i] = colours[i%7];
    }
}

int map(int value, int from_low, int from_high, int to_low, int to_high) {
    float slope = (float)(to_high - to_low)/(float)(from_high - from_low);
     278:	e59d0018 	ldr	r0, [sp, #24]
     27c:	e0640000 	rsb	r0, r4, r0
     280:	eb000274 	bl	c58 <__aeabi_i2f>
     284:	e1a07000 	mov	r7, r0
     288:	e0650008 	rsb	r0, r5, r8
     28c:	eb000271 	bl	c58 <__aeabi_i2f>
     290:	e1a01000 	mov	r1, r0
     294:	e1a00007 	mov	r0, r7
     298:	eb00030b 	bl	ecc <__aeabi_fdiv>
     29c:	e1a01000 	mov	r1, r0
    return to_low + (int)(slope*(value - from_low));
     2a0:	e1a00006 	mov	r0, r6
     2a4:	eb0002a2 	bl	d34 <__aeabi_fmul>
     2a8:	eb00035f 	bl	102c <__aeabi_f2iz>
}
     2ac:	e0800004 	add	r0, r0, r4
     2b0:	e8bd81f0 	pop	{r4, r5, r6, r7, r8, pc}

000002b4 <vga_pixel_to_short>:

short vga_pixel_to_short(colour_t colour) {
     2b4:	e92d4070 	push	{r4, r5, r6, lr}
     2b8:	e24dd018 	sub	sp, sp, #24
     2bc:	e28d3018 	add	r3, sp, #24
     2c0:	e9030007 	stmdb	r3, {r0, r1, r2}
    short result = 0;
    result |= map(colour.blue, 0, 255, 0, 31) & 0x1F;
     2c4:	e3a0401f 	mov	r4, #31
     2c8:	e58d4000 	str	r4, [sp]
     2cc:	e59d0014 	ldr	r0, [sp, #20]
     2d0:	e3a01000 	mov	r1, #0
     2d4:	e3a020ff 	mov	r2, #255	; 0xff
     2d8:	e1a03001 	mov	r3, r1
     2dc:	ebffffde 	bl	25c <map>
     2e0:	e1a06000 	mov	r6, r0
    result |= (map(colour.green, 0, 255, 0, 63) & 0x3F) << 5;
     2e4:	e3a0303f 	mov	r3, #63	; 0x3f
     2e8:	e58d3000 	str	r3, [sp]
     2ec:	e59d0010 	ldr	r0, [sp, #16]
     2f0:	e3a01000 	mov	r1, #0
     2f4:	e3a020ff 	mov	r2, #255	; 0xff
     2f8:	e1a03001 	mov	r3, r1
     2fc:	ebffffd6 	bl	25c <map>
     300:	e1a05000 	mov	r5, r0
    result |= (map(colour.red, 0, 255, 0, 31) & 0x1F) << 11;
     304:	e58d4000 	str	r4, [sp]
     308:	e59d000c 	ldr	r0, [sp, #12]
     30c:	e3a01000 	mov	r1, #0
     310:	e3a020ff 	mov	r2, #255	; 0xff
     314:	e1a03001 	mov	r3, r1
     318:	ebffffcf 	bl	25c <map>
    return to_low + (int)(slope*(value - from_low));
}

short vga_pixel_to_short(colour_t colour) {
    short result = 0;
    result |= map(colour.blue, 0, 255, 0, 31) & 0x1F;
     31c:	e0066004 	and	r6, r6, r4
    result |= (map(colour.green, 0, 255, 0, 63) & 0x3F) << 5;
     320:	e1860580 	orr	r0, r6, r0, lsl #11
     324:	e6ff6070 	uxth	r6, r0
     328:	e205503f 	and	r5, r5, #63	; 0x3f
    result |= (map(colour.red, 0, 255, 0, 31) & 0x1F) << 11;
     32c:	e1860285 	orr	r0, r6, r5, lsl #5
    return result;
}
     330:	e6bf0070 	sxth	r0, r0
     334:	e28dd018 	add	sp, sp, #24
     338:	e8bd8070 	pop	{r4, r5, r6, pc}

0000033c <vga_set_pixel>:


void vga_set_pixel(int x, int y, colour_t colour) {
     33c:	e24dd008 	sub	sp, sp, #8
     340:	e24dc004 	sub	ip, sp, #4
     344:	e98c000c 	stmib	ip, {r2, r3}
    volatile short *address=(volatile short*)(FPGA_PIXEL_BUF_BASE + (y << 10) + (x << 1));
     348:	e1a00080 	lsl	r0, r0, #1
     34c:	e2800332 	add	r0, r0, #-939524096	; 0xc8000000
     350:	e1a01501 	lsl	r1, r1, #10
    *address = (colour.blue & 0x1F) | (colour.green & 0x3F) << 5 | (colour.red & 0x1F) << 11;
     354:	e59d2008 	ldr	r2, [sp, #8]
     358:	e202201f 	and	r2, r2, #31
     35c:	e59d3000 	ldr	r3, [sp]
     360:	e1822583 	orr	r2, r2, r3, lsl #11
     364:	e59d3004 	ldr	r3, [sp, #4]
     368:	e203303f 	and	r3, r3, #63	; 0x3f
     36c:	e1823283 	orr	r3, r2, r3, lsl #5
     370:	e6ff3073 	uxth	r3, r3
     374:	e18030b1 	strh	r3, [r0, r1]
}
     378:	e28dd008 	add	sp, sp, #8
     37c:	e12fff1e 	bx	lr

00000380 <vga_set_screen>:

void vga_set_screen(colour_t colour) {
     380:	e92d4070 	push	{r4, r5, r6, lr}
     384:	e24dd018 	sub	sp, sp, #24
     388:	e28d3018 	add	r3, sp, #24
     38c:	e9030007 	stmdb	r3, {r0, r1, r2}
    int i, j;
    for(i = 0; i < VGA_WIDTH; i++) {
     390:	e3a05000 	mov	r5, #0
void vga_set_pixel(int x, int y, colour_t colour) {
    volatile short *address=(volatile short*)(FPGA_PIXEL_BUF_BASE + (y << 10) + (x << 1));
    *address = (colour.blue & 0x1F) | (colour.green & 0x3F) << 5 | (colour.red & 0x1F) << 11;
}

void vga_set_screen(colour_t colour) {
     394:	e1a06005 	mov	r6, r5
     398:	ea00000c 	b	3d0 <vga_set_screen+0x50>
    int i, j;
    for(i = 0; i < VGA_WIDTH; i++) {
        for(j = 0; j < VGA_HEIGHT; j++) {
            vga_set_pixel(i, j, colour);
     39c:	e59d3014 	ldr	r3, [sp, #20]
     3a0:	e58d3000 	str	r3, [sp]
     3a4:	e28d300c 	add	r3, sp, #12
     3a8:	e893000c 	ldm	r3, {r2, r3}
     3ac:	e1a00005 	mov	r0, r5
     3b0:	e1a01004 	mov	r1, r4
     3b4:	ebffffe0 	bl	33c <vga_set_pixel>
}

void vga_set_screen(colour_t colour) {
    int i, j;
    for(i = 0; i < VGA_WIDTH; i++) {
        for(j = 0; j < VGA_HEIGHT; j++) {
     3b8:	e2844001 	add	r4, r4, #1
     3bc:	e35400f0 	cmp	r4, #240	; 0xf0
     3c0:	1afffff5 	bne	39c <vga_set_screen+0x1c>
    *address = (colour.blue & 0x1F) | (colour.green & 0x3F) << 5 | (colour.red & 0x1F) << 11;
}

void vga_set_screen(colour_t colour) {
    int i, j;
    for(i = 0; i < VGA_WIDTH; i++) {
     3c4:	e2855001 	add	r5, r5, #1
     3c8:	e3550d05 	cmp	r5, #320	; 0x140
     3cc:	0a000001 	beq	3d8 <vga_set_screen+0x58>
void vga_set_pixel(int x, int y, colour_t colour) {
    volatile short *address=(volatile short*)(FPGA_PIXEL_BUF_BASE + (y << 10) + (x << 1));
    *address = (colour.blue & 0x1F) | (colour.green & 0x3F) << 5 | (colour.red & 0x1F) << 11;
}

void vga_set_screen(colour_t colour) {
     3d0:	e1a04006 	mov	r4, r6
     3d4:	eafffff0 	b	39c <vga_set_screen+0x1c>
    for(i = 0; i < VGA_WIDTH; i++) {
        for(j = 0; j < VGA_HEIGHT; j++) {
            vga_set_pixel(i, j, colour);
        }
    }
}
     3d8:	e28dd018 	add	sp, sp, #24
     3dc:	e8bd8070 	pop	{r4, r5, r6, pc}

000003e0 <vga_init>:
void vga_set_screen(colour_t colour);
void vga_set_current_segment(colour_t colour);
void vga_draw_current_segment();
void vga_draw_segment(int segment);

void vga_init() {
     3e0:	e92d4070 	push	{r4, r5, r6, lr}
     3e4:	e24dd058 	sub	sp, sp, #88	; 0x58
    vga_set_screen(BLACK);
     3e8:	e30144a8 	movw	r4, #5288	; 0x14a8
     3ec:	e3404000 	movt	r4, #0
     3f0:	e8940007 	ldm	r4, {r0, r1, r2}
     3f4:	ebffffe1 	bl	380 <vga_set_screen>
    const colour_t colours[] = { RED, BLUE, PURPLE, TURQUOISE, ORANGE, WHITE, YELLOW };
     3f8:	e3a0201f 	mov	r2, #31
     3fc:	e58d2004 	str	r2, [sp, #4]
     400:	e3a03000 	mov	r3, #0
     404:	e58d3008 	str	r3, [sp, #8]
     408:	e58d300c 	str	r3, [sp, #12]
     40c:	e58d3010 	str	r3, [sp, #16]
     410:	e58d3014 	str	r3, [sp, #20]
     414:	e58d2018 	str	r2, [sp, #24]
     418:	e28dc01c 	add	ip, sp, #28
     41c:	e284200c 	add	r2, r4, #12
     420:	e8920007 	ldm	r2, {r0, r1, r2}
     424:	e88c0007 	stm	ip, {r0, r1, r2}
     428:	e28dc028 	add	ip, sp, #40	; 0x28
     42c:	e2842018 	add	r2, r4, #24
     430:	e8920007 	ldm	r2, {r0, r1, r2}
     434:	e88c0007 	stm	ip, {r0, r1, r2}
     438:	e28dc034 	add	ip, sp, #52	; 0x34
     43c:	e2842024 	add	r2, r4, #36	; 0x24
     440:	e8920007 	ldm	r2, {r0, r1, r2}
     444:	e88c0007 	stm	ip, {r0, r1, r2}
     448:	e28dc040 	add	ip, sp, #64	; 0x40
     44c:	e2842030 	add	r2, r4, #48	; 0x30
     450:	e8920007 	ldm	r2, {r0, r1, r2}
     454:	e88c0007 	stm	ip, {r0, r1, r2}
     458:	e284403c 	add	r4, r4, #60	; 0x3c
     45c:	e8940007 	ldm	r4, {r0, r1, r2}
     460:	e28dc058 	add	ip, sp, #88	; 0x58
     464:	e90c0007 	stmdb	ip, {r0, r1, r2}
     468:	e1a04003 	mov	r4, r3
    int i;
    for(i = 0; i < VGA_WIDTH_BINS*VGA_HEIGHT_BINS; i++) {
        colour_buffer[i] = colours[i%7];
     46c:	e30159b4 	movw	r5, #6580	; 0x19b4
     470:	e3405000 	movt	r5, #0
     474:	e3026493 	movw	r6, #9363	; 0x2493
     478:	e3496249 	movt	r6, #37449	; 0x9249
     47c:	e0c21396 	smull	r1, r2, r6, r3
     480:	e0822003 	add	r2, r2, r3
     484:	e1a01fc3 	asr	r1, r3, #31
     488:	e0612142 	rsb	r2, r1, r2, asr #2
     48c:	e0622182 	rsb	r2, r2, r2, lsl #3
     490:	e0622003 	rsb	r2, r2, r3
     494:	e0822082 	add	r2, r2, r2, lsl #1
     498:	e28dc058 	add	ip, sp, #88	; 0x58
     49c:	e08c2102 	add	r2, ip, r2, lsl #2
     4a0:	e2422054 	sub	r2, r2, #84	; 0x54
     4a4:	e085c004 	add	ip, r5, r4
     4a8:	e8920007 	ldm	r2, {r0, r1, r2}
     4ac:	e88c0007 	stm	ip, {r0, r1, r2}

void vga_init() {
    vga_set_screen(BLACK);
    const colour_t colours[] = { RED, BLUE, PURPLE, TURQUOISE, ORANGE, WHITE, YELLOW };
    int i;
    for(i = 0; i < VGA_WIDTH_BINS*VGA_HEIGHT_BINS; i++) {
     4b0:	e2833001 	add	r3, r3, #1
     4b4:	e284400c 	add	r4, r4, #12
     4b8:	e3530040 	cmp	r3, #64	; 0x40
     4bc:	1affffee 	bne	47c <vga_init+0x9c>
        colour_buffer[i] = colours[i%7];
    }
}
     4c0:	e28dd058 	add	sp, sp, #88	; 0x58
     4c4:	e8bd8070 	pop	{r4, r5, r6, pc}

000004c8 <vga_draw_segment>:
        // }
        vga_draw_segment(segment);
    }
}

void vga_draw_segment(int segment) {
     4c8:	e92d4ff0 	push	{r4, r5, r6, r7, r8, r9, sl, fp, lr}
     4cc:	e24dd024 	sub	sp, sp, #36	; 0x24
     4d0:	e1a08000 	mov	r8, r0
    const int bin_width_size = VGA_WIDTH/VGA_WIDTH_BINS;
    const int bin_height_size = VGA_HEIGHT/VGA_HEIGHT_BINS;
    int x, y;
    int x_start = (segment%VGA_WIDTH_BINS)*bin_width_size, x_end = x_start + bin_width_size;
     4d4:	e1a03fc0 	asr	r3, r0, #31
     4d8:	e1a03ea3 	lsr	r3, r3, #29
     4dc:	e0806003 	add	r6, r0, r3
     4e0:	e2066007 	and	r6, r6, #7
     4e4:	e0636006 	rsb	r6, r3, r6
     4e8:	e0866106 	add	r6, r6, r6, lsl #2
     4ec:	e1a06186 	lsl	r6, r6, #3
     4f0:	e1a0b006 	mov	fp, r6
     4f4:	e2863028 	add	r3, r6, #40	; 0x28
     4f8:	e58d300c 	str	r3, [sp, #12]
    int y_start = (segment/VGA_WIDTH_BINS)*bin_height_size, y_end = y_start + bin_height_size;
     4fc:	e2807007 	add	r7, r0, #7
     500:	e3500000 	cmp	r0, #0
     504:	a1a07000 	movge	r7, r0
     508:	e1a071c7 	asr	r7, r7, #3
     50c:	e0677207 	rsb	r7, r7, r7, lsl #4
     510:	e1a07087 	lsl	r7, r7, #1
     514:	e1a09007 	mov	r9, r7
     518:	e287701e 	add	r7, r7, #30
    for(x = x_start; x < x_end; x++) {
     51c:	e1560003 	cmp	r6, r3
     520:	ba00002a 	blt	5d0 <vga_draw_segment+0x108>
     524:	ea000033 	b	5f8 <vga_draw_segment+0x130>
        for(y = y_start; y < y_end; y++) {
            if(segment == vga_segment_selection && (x == x_start || x == (x_end-1) || y == y_start || y == (y_end-1))) {
     528:	e59a3300 	ldr	r3, [sl, #768]	; 0x300
     52c:	e1580003 	cmp	r8, r3
     530:	1a000018 	bne	598 <vga_draw_segment+0xd0>
     534:	e156000b 	cmp	r6, fp
     538:	0a000007 	beq	55c <vga_draw_segment+0x94>
     53c:	e59d3008 	ldr	r3, [sp, #8]
     540:	e1530006 	cmp	r3, r6
     544:	0a000004 	beq	55c <vga_draw_segment+0x94>
     548:	e1540009 	cmp	r4, r9
     54c:	0a000002 	beq	55c <vga_draw_segment+0x94>
     550:	e289301d 	add	r3, r9, #29
     554:	e1530004 	cmp	r3, r4
     558:	1a00000e 	bne	598 <vga_draw_segment+0xd0>
                colour_t col = { VGA_MAX_RED - colour_buffer[segment].red, VGA_MAX_GREEN - colour_buffer[segment].green, VGA_MAX_BLUE - colour_buffer[segment].blue };
     55c:	e5953000 	ldr	r3, [r5]
     560:	e263301f 	rsb	r3, r3, #31
     564:	e58d3014 	str	r3, [sp, #20]
     568:	e5953004 	ldr	r3, [r5, #4]
     56c:	e263303f 	rsb	r3, r3, #63	; 0x3f
     570:	e58d3018 	str	r3, [sp, #24]
     574:	e5953008 	ldr	r3, [r5, #8]
     578:	e263301f 	rsb	r3, r3, #31
                vga_set_pixel(x,y,col);
     57c:	e58d3000 	str	r3, [sp]
     580:	e28d3014 	add	r3, sp, #20
     584:	e893000c 	ldm	r3, {r2, r3}
     588:	e1a00006 	mov	r0, r6
     58c:	e1a01004 	mov	r1, r4
     590:	ebffff69 	bl	33c <vga_set_pixel>
    int x, y;
    int x_start = (segment%VGA_WIDTH_BINS)*bin_width_size, x_end = x_start + bin_width_size;
    int y_start = (segment/VGA_WIDTH_BINS)*bin_height_size, y_end = y_start + bin_height_size;
    for(x = x_start; x < x_end; x++) {
        for(y = y_start; y < y_end; y++) {
            if(segment == vga_segment_selection && (x == x_start || x == (x_end-1) || y == y_start || y == (y_end-1))) {
     594:	ea000005 	b	5b0 <vga_draw_segment+0xe8>
                colour_t col = { VGA_MAX_RED - colour_buffer[segment].red, VGA_MAX_GREEN - colour_buffer[segment].green, VGA_MAX_BLUE - colour_buffer[segment].blue };
                vga_set_pixel(x,y,col);
            }
            else {
                vga_set_pixel(x,y,colour_buffer[segment]);
     598:	e5953008 	ldr	r3, [r5, #8]
     59c:	e58d3000 	str	r3, [sp]
     5a0:	e895000c 	ldm	r5, {r2, r3}
     5a4:	e1a00006 	mov	r0, r6
     5a8:	e1a01004 	mov	r1, r4
     5ac:	ebffff62 	bl	33c <vga_set_pixel>
    const int bin_height_size = VGA_HEIGHT/VGA_HEIGHT_BINS;
    int x, y;
    int x_start = (segment%VGA_WIDTH_BINS)*bin_width_size, x_end = x_start + bin_width_size;
    int y_start = (segment/VGA_WIDTH_BINS)*bin_height_size, y_end = y_start + bin_height_size;
    for(x = x_start; x < x_end; x++) {
        for(y = y_start; y < y_end; y++) {
     5b0:	e2844001 	add	r4, r4, #1
     5b4:	e1570004 	cmp	r7, r4
     5b8:	1affffda 	bne	528 <vga_draw_segment+0x60>
    const int bin_width_size = VGA_WIDTH/VGA_WIDTH_BINS;
    const int bin_height_size = VGA_HEIGHT/VGA_HEIGHT_BINS;
    int x, y;
    int x_start = (segment%VGA_WIDTH_BINS)*bin_width_size, x_end = x_start + bin_width_size;
    int y_start = (segment/VGA_WIDTH_BINS)*bin_height_size, y_end = y_start + bin_height_size;
    for(x = x_start; x < x_end; x++) {
     5bc:	e2866001 	add	r6, r6, #1
     5c0:	e59d300c 	ldr	r3, [sp, #12]
     5c4:	e1530006 	cmp	r3, r6
     5c8:	1a000006 	bne	5e8 <vga_draw_segment+0x120>
     5cc:	ea000009 	b	5f8 <vga_draw_segment+0x130>
        for(y = y_start; y < y_end; y++) {
            if(segment == vga_segment_selection && (x == x_start || x == (x_end-1) || y == y_start || y == (y_end-1))) {
     5d0:	e301a9b4 	movw	sl, #6580	; 0x19b4
     5d4:	e340a000 	movt	sl, #0
                colour_t col = { VGA_MAX_RED - colour_buffer[segment].red, VGA_MAX_GREEN - colour_buffer[segment].green, VGA_MAX_BLUE - colour_buffer[segment].blue };
                vga_set_pixel(x,y,col);
            }
            else {
                vga_set_pixel(x,y,colour_buffer[segment]);
     5d8:	e0805080 	add	r5, r0, r0, lsl #1
     5dc:	e08a5105 	add	r5, sl, r5, lsl #2
    int x, y;
    int x_start = (segment%VGA_WIDTH_BINS)*bin_width_size, x_end = x_start + bin_width_size;
    int y_start = (segment/VGA_WIDTH_BINS)*bin_height_size, y_end = y_start + bin_height_size;
    for(x = x_start; x < x_end; x++) {
        for(y = y_start; y < y_end; y++) {
            if(segment == vga_segment_selection && (x == x_start || x == (x_end-1) || y == y_start || y == (y_end-1))) {
     5e0:	e2863027 	add	r3, r6, #39	; 0x27
     5e4:	e58d3008 	str	r3, [sp, #8]
    const int bin_height_size = VGA_HEIGHT/VGA_HEIGHT_BINS;
    int x, y;
    int x_start = (segment%VGA_WIDTH_BINS)*bin_width_size, x_end = x_start + bin_width_size;
    int y_start = (segment/VGA_WIDTH_BINS)*bin_height_size, y_end = y_start + bin_height_size;
    for(x = x_start; x < x_end; x++) {
        for(y = y_start; y < y_end; y++) {
     5e8:	e1590007 	cmp	r9, r7
     5ec:	b1a04009 	movlt	r4, r9
     5f0:	baffffcc 	blt	528 <vga_draw_segment+0x60>
     5f4:	eafffff0 	b	5bc <vga_draw_segment+0xf4>
            else {
                vga_set_pixel(x,y,colour_buffer[segment]);
            }
        }
    }
}
     5f8:	e28dd024 	add	sp, sp, #36	; 0x24
     5fc:	e8bd8ff0 	pop	{r4, r5, r6, r7, r8, r9, sl, fp, pc}

00000600 <vga_show_screen>:
            vga_set_pixel(i, j, colour);
        }
    }
}

void vga_show_screen() {
     600:	e92d4010 	push	{r4, lr}
    // const int bin_width_size = VGA_WIDTH/VGA_WIDTH_BINS;
    // const int bin_height_size = VGA_HEIGHT/VGA_HEIGHT_BINS;
    int segment, x, y;
    // int x_start = 0, x_end = bin_width_size;
    // int y_start = 0, y_end = bin_height_size;
    for(segment = 0; segment < VGA_WIDTH_BINS*VGA_HEIGHT_BINS; segment++) {
     604:	e3a04000 	mov	r4, #0
        // }
        // else {
        //     x_start += bin_width_size;
        //     x_end = x_start + bin_width_size;
        // }
        vga_draw_segment(segment);
     608:	e1a00004 	mov	r0, r4
     60c:	ebffffad 	bl	4c8 <vga_draw_segment>
    // const int bin_width_size = VGA_WIDTH/VGA_WIDTH_BINS;
    // const int bin_height_size = VGA_HEIGHT/VGA_HEIGHT_BINS;
    int segment, x, y;
    // int x_start = 0, x_end = bin_width_size;
    // int y_start = 0, y_end = bin_height_size;
    for(segment = 0; segment < VGA_WIDTH_BINS*VGA_HEIGHT_BINS; segment++) {
     610:	e2844001 	add	r4, r4, #1
     614:	e3540040 	cmp	r4, #64	; 0x40
     618:	1afffffa 	bne	608 <vga_show_screen+0x8>
        //     x_start += bin_width_size;
        //     x_end = x_start + bin_width_size;
        // }
        vga_draw_segment(segment);
    }
}
     61c:	e8bd8010 	pop	{r4, pc}

00000620 <vga_increment_selection>:
            }
        }
    }
}

void vga_increment_selection() {
     620:	e92d4008 	push	{r3, lr}
    vga_previous_segment_selection = vga_segment_selection;
     624:	e30139b4 	movw	r3, #6580	; 0x19b4
     628:	e3403000 	movt	r3, #0
     62c:	e5930300 	ldr	r0, [r3, #768]	; 0x300
     630:	e5830304 	str	r0, [r3, #772]	; 0x304
    if(vga_segment_selection != VGA_WIDTH_BINS*VGA_HEIGHT_BINS - 1) vga_segment_selection++;
     634:	e350003f 	cmp	r0, #63	; 0x3f
     638:	130139b4 	movwne	r3, #6580	; 0x19b4
     63c:	13403000 	movtne	r3, #0
     640:	12802001 	addne	r2, r0, #1
     644:	15832300 	strne	r2, [r3, #768]	; 0x300
    vga_draw_segment(vga_previous_segment_selection);
     648:	ebffff9e 	bl	4c8 <vga_draw_segment>
    vga_draw_segment(vga_segment_selection);
     64c:	e30139b4 	movw	r3, #6580	; 0x19b4
     650:	e3403000 	movt	r3, #0
     654:	e5930300 	ldr	r0, [r3, #768]	; 0x300
     658:	ebffff9a 	bl	4c8 <vga_draw_segment>
     65c:	e8bd8008 	pop	{r3, pc}

00000660 <vga_decrement_selection>:
}

void vga_decrement_selection() {
     660:	e92d4008 	push	{r3, lr}
    vga_previous_segment_selection = vga_segment_selection;
     664:	e30139b4 	movw	r3, #6580	; 0x19b4
     668:	e3403000 	movt	r3, #0
     66c:	e5930300 	ldr	r0, [r3, #768]	; 0x300
     670:	e5830304 	str	r0, [r3, #772]	; 0x304
    if(vga_segment_selection != 0) vga_segment_selection--;
     674:	e3500000 	cmp	r0, #0
     678:	130139b4 	movwne	r3, #6580	; 0x19b4
     67c:	13403000 	movtne	r3, #0
     680:	12402001 	subne	r2, r0, #1
     684:	15832300 	strne	r2, [r3, #768]	; 0x300
    vga_draw_segment(vga_previous_segment_selection);
     688:	ebffff8e 	bl	4c8 <vga_draw_segment>
    vga_draw_segment(vga_segment_selection);
     68c:	e30139b4 	movw	r3, #6580	; 0x19b4
     690:	e3403000 	movt	r3, #0
     694:	e5930300 	ldr	r0, [r3, #768]	; 0x300
     698:	ebffff8a 	bl	4c8 <vga_draw_segment>
     69c:	e8bd8008 	pop	{r3, pc}

000006a0 <vga_set_segment>:
}

void vga_set_segment(int segment, colour_t colour) {
     6a0:	e52d4004 	push	{r4}		; (str r4, [sp, #-4]!)
     6a4:	e24dd014 	sub	sp, sp, #20
     6a8:	e28dc004 	add	ip, sp, #4
     6ac:	e88c000e 	stm	ip, {r1, r2, r3}
    colour_buffer[segment] = colour;
     6b0:	e30129b4 	movw	r2, #6580	; 0x19b4
     6b4:	e3402000 	movt	r2, #0
     6b8:	e0800080 	add	r0, r0, r0, lsl #1
     6bc:	e0824100 	add	r4, r2, r0, lsl #2
     6c0:	e89c0007 	ldm	ip, {r0, r1, r2}
     6c4:	e884000b 	stm	r4, {r0, r1, r3}
}
     6c8:	e28dd014 	add	sp, sp, #20
     6cc:	e8bd0010 	ldmfd	sp!, {r4}
     6d0:	e12fff1e 	bx	lr

000006d4 <vga_set_current_segment>:

void vga_set_current_segment(colour_t colour) {
     6d4:	e52de004 	push	{lr}		; (str lr, [sp, #-4]!)
     6d8:	e24dd014 	sub	sp, sp, #20
     6dc:	e28d3004 	add	r3, sp, #4
     6e0:	e8830007 	stm	r3, {r0, r1, r2}
    vga_set_segment(vga_segment_selection, colour);
     6e4:	e30129b4 	movw	r2, #6580	; 0x19b4
     6e8:	e3402000 	movt	r2, #0
     6ec:	e5920300 	ldr	r0, [r2, #768]	; 0x300
     6f0:	e893000e 	ldm	r3, {r1, r2, r3}
     6f4:	ebffffe9 	bl	6a0 <vga_set_segment>
}
     6f8:	e28dd014 	add	sp, sp, #20
     6fc:	e8bd8000 	ldmfd	sp!, {pc}

00000700 <vga_draw_current_segment>:

void vga_draw_current_segment() {
     700:	e92d4008 	push	{r3, lr}
    vga_draw_segment(vga_segment_selection);
     704:	e30139b4 	movw	r3, #6580	; 0x19b4
     708:	e3403000 	movt	r3, #0
     70c:	e5930300 	ldr	r0, [r3, #768]	; 0x300
     710:	ebffff6c 	bl	4c8 <vga_draw_segment>
     714:	e8bd8008 	pop	{r3, pc}

00000718 <jtag_fifo_flush>:
}

void jtag_fifo_flush() {
    int data;
    do {
        data = jtag->data;
     718:	e3012fff 	movw	r2, #8191	; 0x1fff
     71c:	e34f2f21 	movt	r2, #65313	; 0xff21
     720:	e5123fdf 	ldr	r3, [r2, #-4063]	; 0xfffff021
    } while(data & JTAG_READY_MASK);
     724:	e3130902 	tst	r3, #32768	; 0x8000
     728:	1afffffc 	bne	720 <jtag_fifo_flush+0x8>
}
     72c:	e12fff1e 	bx	lr

00000730 <jtag_start_request>:
    int data_ready;
} carworld;

volatile jtag_t* const jtag = (jtag_t*)JTAG_BASE;

void jtag_start_request() {
     730:	e92d4008 	push	{r3, lr}
    carworld.buffer_index = 0;
     734:	e30139b4 	movw	r3, #6580	; 0x19b4
     738:	e3403000 	movt	r3, #0
     73c:	e3a02000 	mov	r2, #0
     740:	e583230c 	str	r2, [r3, #780]	; 0x30c
    carworld.data_ready = 0;
     744:	e5832310 	str	r2, [r3, #784]	; 0x310

    jtag_fifo_flush();
     748:	ebfffff2 	bl	718 <jtag_fifo_flush>

    // request sliders
    jtag->data = JTAG_REQUEST_SLIDERS;
     74c:	e3013fff 	movw	r3, #8191	; 0x1fff
     750:	e34f3f21 	movt	r3, #65313	; 0xff21
     754:	e3a02003 	mov	r2, #3
     758:	e5032fdf 	str	r2, [r3, #-4063]	; 0xfffff021
     75c:	e8bd8008 	pop	{r3, pc}

00000760 <jtag_read_fifo>:
        data = jtag->data;
    } while(data & JTAG_READY_MASK);
}

void jtag_read_fifo() {
    int data = jtag->data;
     760:	e3013fff 	movw	r3, #8191	; 0x1fff
     764:	e34f3f21 	movt	r3, #65313	; 0xff21
     768:	e5132fdf 	ldr	r2, [r3, #-4063]	; 0xfffff021
    if(data & JTAG_READY_MASK) {
     76c:	e3120902 	tst	r2, #32768	; 0x8000
     770:	012fff1e 	bxeq	lr
        if(carworld.buffer_index == 0) {
     774:	e30139b4 	movw	r3, #6580	; 0x19b4
     778:	e3403000 	movt	r3, #0
     77c:	e593330c 	ldr	r3, [r3, #780]	; 0x30c
     780:	e3530000 	cmp	r3, #0
     784:	1a000004 	bne	79c <jtag_read_fifo+0x3c>
            carworld.buffer_index++;
     788:	e30139b4 	movw	r3, #6580	; 0x19b4
     78c:	e3403000 	movt	r3, #0
     790:	e3a02001 	mov	r2, #1
     794:	e583230c 	str	r2, [r3, #780]	; 0x30c
     798:	e12fff1e 	bx	lr
        }
        else if(carworld.buffer_index == 1) {
     79c:	e3530001 	cmp	r3, #1
     7a0:	1a000005 	bne	7bc <jtag_read_fifo+0x5c>
            carworld.x = data & JTAG_DATA_MASK;
     7a4:	e30139b4 	movw	r3, #6580	; 0x19b4
     7a8:	e3403000 	movt	r3, #0
     7ac:	e5c32308 	strb	r2, [r3, #776]	; 0x308
            carworld.buffer_index++;
     7b0:	e3a02002 	mov	r2, #2
     7b4:	e583230c 	str	r2, [r3, #780]	; 0x30c
     7b8:	e12fff1e 	bx	lr
        }
        else if(carworld.buffer_index == 2) {
     7bc:	e3530002 	cmp	r3, #2
     7c0:	1a000005 	bne	7dc <jtag_read_fifo+0x7c>
            carworld.y = data & JTAG_DATA_MASK;
     7c4:	e30139b4 	movw	r3, #6580	; 0x19b4
     7c8:	e3403000 	movt	r3, #0
     7cc:	e5c32309 	strb	r2, [r3, #777]	; 0x309
            carworld.buffer_index++;
     7d0:	e3a02003 	mov	r2, #3
     7d4:	e583230c 	str	r2, [r3, #780]	; 0x30c
     7d8:	e12fff1e 	bx	lr
        }
        else if(carworld.buffer_index == 3) {
     7dc:	e3530003 	cmp	r3, #3
     7e0:	112fff1e 	bxne	lr
            carworld.z = data & JTAG_DATA_MASK;
     7e4:	e30139b4 	movw	r3, #6580	; 0x19b4
     7e8:	e3403000 	movt	r3, #0
     7ec:	e5c3230a 	strb	r2, [r3, #778]	; 0x30a
            carworld.buffer_index = 0;
     7f0:	e3a02000 	mov	r2, #0
     7f4:	e583230c 	str	r2, [r3, #780]	; 0x30c
            carworld.data_ready = 1;
     7f8:	e3a02001 	mov	r2, #1
     7fc:	e5832310 	str	r2, [r3, #784]	; 0x310
     800:	e12fff1e 	bx	lr

00000804 <get_carworld_data>:
        }
    }
}

struct _carworld* get_carworld_data() {
    carworld.data_ready = 0;
     804:	e30109b4 	movw	r0, #6580	; 0x19b4
     808:	e3400000 	movt	r0, #0
     80c:	e3a03000 	mov	r3, #0
     810:	e5803310 	str	r3, [r0, #784]	; 0x310
    return &carworld;
}
     814:	e2800fc2 	add	r0, r0, #776	; 0x308
     818:	e12fff1e 	bx	lr

0000081c <carworld_to_colour>:

void carworld_to_colour(struct _carworld* car, colour_t* colour) {
     81c:	e92d4070 	push	{r4, r5, r6, lr}
     820:	e24dd008 	sub	sp, sp, #8
     824:	e1a05000 	mov	r5, r0
     828:	e1a04001 	mov	r4, r1
    colour->red = map((car->x+CARWORLD_SLIDER_OFFSET), 0, CARWORLD_MAX_SLIDER, 0, VGA_MAX_RED);
     82c:	e1d000d0 	ldrsb	r0, [r0]
     830:	e3a0601f 	mov	r6, #31
     834:	e58d6000 	str	r6, [sp]
     838:	e2800080 	add	r0, r0, #128	; 0x80
     83c:	e3a01000 	mov	r1, #0
     840:	e3a020ff 	mov	r2, #255	; 0xff
     844:	e1a03001 	mov	r3, r1
     848:	ebfffe83 	bl	25c <map>
     84c:	e5840000 	str	r0, [r4]
    colour->green = map((car->y+CARWORLD_SLIDER_OFFSET), 0, CARWORLD_MAX_SLIDER, 0, VGA_MAX_GREEN);
     850:	e1d500d1 	ldrsb	r0, [r5, #1]
     854:	e3a0303f 	mov	r3, #63	; 0x3f
     858:	e58d3000 	str	r3, [sp]
     85c:	e2800080 	add	r0, r0, #128	; 0x80
     860:	e3a01000 	mov	r1, #0
     864:	e3a020ff 	mov	r2, #255	; 0xff
     868:	e1a03001 	mov	r3, r1
     86c:	ebfffe7a 	bl	25c <map>
     870:	e5840004 	str	r0, [r4, #4]
    colour->blue = map((car->z+CARWORLD_SLIDER_OFFSET), 0, CARWORLD_MAX_SLIDER, 0, VGA_MAX_BLUE);
     874:	e1d500d2 	ldrsb	r0, [r5, #2]
     878:	e58d6000 	str	r6, [sp]
     87c:	e2800080 	add	r0, r0, #128	; 0x80
     880:	e3a01000 	mov	r1, #0
     884:	e3a020ff 	mov	r2, #255	; 0xff
     888:	e1a03001 	mov	r3, r1
     88c:	ebfffe72 	bl	25c <map>
     890:	e5840008 	str	r0, [r4, #8]
     894:	e28dd008 	add	sp, sp, #8
     898:	e8bd8070 	pop	{r4, r5, r6, pc}

0000089c <config_KEYs>:
/*setup the KEY interrupts in the FPGA*/
void config_KEYs()
{
	volatile int * KEY_ptr = (int*) 0xFF200050;   // KEY base address

	*(KEY_ptr + 2) = 0xF;		// enable interrupts for all four KEYs
     89c:	e3a03000 	mov	r3, #0
     8a0:	e34f3f20 	movt	r3, #65312	; 0xff20
     8a4:	e3a0200f 	mov	r2, #15
     8a8:	e5832058 	str	r2, [r3, #88]	; 0x58
     8ac:	e12fff1e 	bx	lr

000008b0 <__cs3_reset>:
	*((int*) 0xFFFEC110) = interrupt_ID;
}

// Define the remaining exception handlers
void __attribute__ ((interrupt)) __cs3_reset (void)
{
     8b0:	eafffffe 	b	8b0 <__cs3_reset>

000008b4 <__cs3_isr_undef>:
	while(1);
}
void __attribute__ ((interrupt)) __cs3_isr_undef (void)
{
     8b4:	eafffffe 	b	8b4 <__cs3_isr_undef>

000008b8 <__cs3_isr_swi>:
	while(1);
}
void __attribute__ ((interrupt)) __cs3_isr_swi (void)
{
     8b8:	eafffffe 	b	8b8 <__cs3_isr_swi>

000008bc <__cs3_isr_pabort>:
	while(1);
}
void __attribute__ ((interrupt)) __cs3_isr_pabort (void)
{
     8bc:	eafffffe 	b	8bc <__cs3_isr_pabort>

000008c0 <__cs3_isr_dabort>:
	while(1);
}
void __attribute__ ((interrupt)) __cs3_isr_dabort (void)
{
     8c0:	eafffffe 	b	8c0 <__cs3_isr_dabort>

000008c4 <__cs3_isr_fiq>:
	while(1);
}
void __attribute__ ((interrupt)) __cs3_isr_fiq (void)
{
     8c4:	eafffffe 	b	8c4 <__cs3_isr_fiq>

000008c8 <disable_A9_interrupts>:
 *Turn off interrupts in the ARM processor
*/
void disable_A9_interrupts(void)
{
	int status = 0b11010011;
	asm("msr cpsr, %[ps]" : : [ps]"r"(status));
     8c8:	e3a030d3 	mov	r3, #211	; 0xd3
     8cc:	e129f003 	msr	CPSR_fc, r3
     8d0:	e12fff1e 	bx	lr

000008d4 <set_A9_IRQ_stack>:
{
	int stack, mode;
	stack = 0xFFFFFFFF - 7;      // top of A9 onchip memory, aligned to 8 bytes
	/*change processor to IRQ mode with interrupts disabled*/
	mode = 0b11010010;
	asm("msr cpsr, %[ps]" : : [ps] "r" (mode));
     8d4:	e3a030d2 	mov	r3, #210	; 0xd2
     8d8:	e129f003 	msr	CPSR_fc, r3
	/*set banked stack pointer*/
	asm("mov sp, %[ps]" : : [ps] "r" (stack));
     8dc:	e3e03007 	mvn	r3, #7
     8e0:	e1a0d003 	mov	sp, r3

	/*go back to SVC mode before executing subroutine return!*/
	mode = 0b11010011;
	asm("msr cpsr, %[ps]" : : [ps] "r" (mode));
     8e4:	e3a030d3 	mov	r3, #211	; 0xd3
     8e8:	e129f003 	msr	CPSR_fc, r3
     8ec:	e12fff1e 	bx	lr

000008f0 <enable_A9_interrupts>:
 *Turn on interrupts in the ARM processor
*/
void enable_A9_interrupts(void)
{
	int status = 0b01010011;
	asm("msr cpsr, %[ps]" : : [ps]"r"(status));
     8f0:	e3a03053 	mov	r3, #83	; 0x53
     8f4:	e129f003 	msr	CPSR_fc, r3
     8f8:	e12fff1e 	bx	lr

000008fc <config_interrupt>:
 *configure only the Interrupt Set Enable Registers (ICDISERn) and
 *Interrupt Processor Target Registers (ICDIPTRn). The default (reset)
 *values are used for other registers in the GIC
*/
void config_interrupt (int N, int CPU_target)
{
     8fc:	e52d4004 	push	{r4}		; (str r4, [sp, #-4]!)
	int reg_offset, index, value, address;

	/* Configure the Interrupt Set-Enable Registers (ICDISERn).
	 * reg_offset = (integer_div(N / 32)*4; value = 1 << (N mod 32)*/
	reg_offset = (N >> 3) & 0xFFFFFFFC;
     900:	e1a031c0 	asr	r3, r0, #3
     904:	e3c33003 	bic	r3, r3, #3
	index = N & 0x1F;
	value = 0x1 << index;
	address = 0xFFFED100 + reg_offset;
     908:	e2433b4b 	sub	r3, r3, #76800	; 0x12c00
	int reg_offset, index, value, address;

	/* Configure the Interrupt Set-Enable Registers (ICDISERn).
	 * reg_offset = (integer_div(N / 32)*4; value = 1 << (N mod 32)*/
	reg_offset = (N >> 3) & 0xFFFFFFFC;
	index = N & 0x1F;
     90c:	e200201f 	and	r2, r0, #31
	value = 0x1 << index;
	address = 0xFFFED100 + reg_offset;
	/* Using the address and value, set the appropriate bit */
	*(int*)address |= value;
     910:	e513c300 	ldr	ip, [r3, #-768]	; 0xfffffd00
     914:	e3a04001 	mov	r4, #1
     918:	e18c2214 	orr	r2, ip, r4, lsl r2
     91c:	e5032300 	str	r2, [r3, #-768]	; 0xfffffd00
	reg_offset = (N & 0xFFFFFFFC);
	index = N & 0x3;
	address = 0xFFFED800 + reg_offset + index;

	/*Using the address and value, write to (only) the appropriate byte*/
	*(char*)address = (char) CPU_target;
     920:	e2400b4a 	sub	r0, r0, #75776	; 0x12800
     924:	e5c01000 	strb	r1, [r0]
}
     928:	e8bd0010 	ldmfd	sp!, {r4}
     92c:	e12fff1e 	bx	lr

00000930 <config_GIC>:

/*
 *Configure the Generic Interrupt Controller (GIC)
*/
void config_GIC(void)
{
     930:	e92d4008 	push	{r3, lr}
	config_interrupt (73, 1);    // configure the FPGA KEYs interrupt (73)
     934:	e3a00049 	mov	r0, #73	; 0x49
     938:	e3a01001 	mov	r1, #1
     93c:	ebffffee 	bl	8fc <config_interrupt>

	// Set Interrupt Priority Mask Register (ICCPMR). Enable all priorities
	*((int*) 0xFFFEC104) = 0xFFFF;
     940:	e3e02a13 	mvn	r2, #77824	; 0x13000
     944:	e30f3fff 	movw	r3, #65535	; 0xffff
     948:	e5023efb 	str	r3, [r2, #-3835]	; 0xfffff105

	// Set the enable in the CPU Interface Control Register (ICCICR)
	*((int*) 0xFFFEC100) = 1;
     94c:	e3a03001 	mov	r3, #1
     950:	e5023eff 	str	r3, [r2, #-3839]	; 0xfffff101

	// Set the enable in the Distributor Control Register (ICDDCR)
	*((int*) 0xFFFED000) = 1;
     954:	e3e02a12 	mvn	r2, #73728	; 0x12000
     958:	e5023fff 	str	r3, [r2, #-4095]	; 0xfffff001
     95c:	e8bd8008 	pop	{r3, pc}

00000960 <pushbutton_ISR>:
 * Pushbutton - Interrupt Service Routine
 *
 * This routine checks which KEY has been pressed. It writes to HEX0
 *******************************************************************/
void pushbutton_ISR( void )
{
     960:	e92d4008 	push	{r3, lr}
	volatile int*KEY_ptr = (int*) 0xFF200050;
	/*HEX display base address*/
	volatile int*HEX3_HEX0_ptr = (int*) 0xFF200020;
	int press, HEX_bits;

	press =*(KEY_ptr + 3);     // read the pushbutton interrupt register
     964:	e3a02000 	mov	r2, #0
     968:	e34f2f20 	movt	r2, #65312	; 0xff20
     96c:	e592305c 	ldr	r3, [r2, #92]	; 0x5c
	*(KEY_ptr + 3) = press;     // Clear the interrupt
     970:	e582305c 	str	r3, [r2, #92]	; 0x5c

	if (press & 0x1) {           // KEY0
     974:	e3130001 	tst	r3, #1
     978:	0a000002 	beq	988 <pushbutton_ISR+0x28>
		HEX_bits = 0b00111111;
		vga_increment_selection();
     97c:	ebffff27 	bl	620 <vga_increment_selection>

	press =*(KEY_ptr + 3);     // read the pushbutton interrupt register
	*(KEY_ptr + 3) = press;     // Clear the interrupt

	if (press & 0x1) {           // KEY0
		HEX_bits = 0b00111111;
     980:	e3a0303f 	mov	r3, #63	; 0x3f
     984:	ea000008 	b	9ac <pushbutton_ISR+0x4c>
		vga_increment_selection();
	}
	else if (press & 0x2) {      // KEY1
     988:	e3130002 	tst	r3, #2
     98c:	0a000002 	beq	99c <pushbutton_ISR+0x3c>
		HEX_bits = 0b00000110;
		vga_decrement_selection();
     990:	ebffff32 	bl	660 <vga_decrement_selection>
	if (press & 0x1) {           // KEY0
		HEX_bits = 0b00111111;
		vga_increment_selection();
	}
	else if (press & 0x2) {      // KEY1
		HEX_bits = 0b00000110;
     994:	e3a03006 	mov	r3, #6
     998:	ea000003 	b	9ac <pushbutton_ISR+0x4c>
		vga_decrement_selection();
	}
	else if (press & 0x4) {      // KEY2
     99c:	e2033004 	and	r3, r3, #4
		HEX_bits = 0b01011011;
     9a0:	e3530000 	cmp	r3, #0
     9a4:	03a0304f 	moveq	r3, #79	; 0x4f
     9a8:	13a0305b 	movne	r3, #91	; 0x5b
	}
	else {                       // press & 0x8, which is KEY3
		HEX_bits = 0b01001111;
	}

	*HEX3_HEX0_ptr = HEX_bits;
     9ac:	e3a02000 	mov	r2, #0
     9b0:	e34f2f20 	movt	r2, #65312	; 0xff20
     9b4:	e5823020 	str	r3, [r2, #32]
     9b8:	e8bd8008 	pop	{r3, pc}

000009bc <__cs3_isr_irq>:
void pushbutton_ISR (void);
void config_interrupt (int, int);

// Define the IRQ exception handler
void __attribute__ ((interrupt)) __cs3_isr_irq (void)
{
     9bc:	e24ee004 	sub	lr, lr, #4
     9c0:	e92d500f 	push	{r0, r1, r2, r3, ip, lr}
	// Read the ICCIAR from the CPU Interface in the GIC
	int interrupt_ID = *((int*) 0xFFFEC10C);
     9c4:	e3e03a13 	mvn	r3, #77824	; 0x13000

	if (interrupt_ID == 73)		// check if interrupt is from the KEYs
     9c8:	e5133ef3 	ldr	r3, [r3, #-3827]	; 0xfffff10d
     9cc:	e3530049 	cmp	r3, #73	; 0x49
     9d0:	1a000004 	bne	9e8 <__cs3_isr_irq+0x2c>
		pushbutton_ISR ();
     9d4:	ebffffe1 	bl	960 <pushbutton_ISR>
	else
		while (1);		// if unexpected, then stay here

	// Write to the End of Interrupt Register (ICCEOIR)
	*((int*) 0xFFFEC110) = interrupt_ID;
     9d8:	e3a02049 	mov	r2, #73	; 0x49
     9dc:	e3e03a13 	mvn	r3, #77824	; 0x13000
     9e0:	e5032eef 	str	r2, [r3, #-3823]	; 0xfffff111
     9e4:	e8fd900f 	ldm	sp!, {r0, r1, r2, r3, ip, pc}^
     9e8:	eafffffe 	b	9e8 <__cs3_isr_irq+0x2c>

000009ec <main>:
#include "address_map_arm.h"
#include "vga.h"
#include "jtag.h"
#include "interrupts.h"

int main(void) {
     9ec:	e92d4030 	push	{r4, r5, lr}
     9f0:	e24dd014 	sub	sp, sp, #20
    set_A9_IRQ_stack();
     9f4:	ebffffb6 	bl	8d4 <set_A9_IRQ_stack>
    config_GIC();
     9f8:	ebffffcc 	bl	930 <config_GIC>
    config_KEYs();
     9fc:	ebffffa6 	bl	89c <config_KEYs>
    enable_A9_interrupts();
     a00:	ebffffba 	bl	8f0 <enable_A9_interrupts>
    vga_init();
     a04:	ebfffe75 	bl	3e0 <vga_init>
    vga_set_screen(BLACK);
     a08:	e30134a8 	movw	r3, #5288	; 0x14a8
     a0c:	e3403000 	movt	r3, #0
     a10:	e8930007 	ldm	r3, {r0, r1, r2}
     a14:	ebfffe59 	bl	380 <vga_set_screen>
    vga_show_screen();
     a18:	ebfffef8 	bl	600 <vga_show_screen>
    int i;
    for(i = 0; i < VGA_WIDTH_BINS*VGA_HEIGHT_BINS; i++) {
     a1c:	e3a04000 	mov	r4, #0
        vga_set_segment(i, RED);
     a20:	e30154a8 	movw	r5, #5288	; 0x14a8
     a24:	e3405000 	movt	r5, #0
     a28:	e1a00004 	mov	r0, r4
     a2c:	e2853048 	add	r3, r5, #72	; 0x48
     a30:	e893000e 	ldm	r3, {r1, r2, r3}
     a34:	ebffff19 	bl	6a0 <vga_set_segment>
    enable_A9_interrupts();
    vga_init();
    vga_set_screen(BLACK);
    vga_show_screen();
    int i;
    for(i = 0; i < VGA_WIDTH_BINS*VGA_HEIGHT_BINS; i++) {
     a38:	e2844001 	add	r4, r4, #1
     a3c:	e3540040 	cmp	r4, #64	; 0x40
     a40:	1afffff8 	bne	a28 <main+0x3c>
        vga_set_segment(i, RED);
    }
    jtag_start_request();
     a44:	ebffff39 	bl	730 <jtag_start_request>
    while(1) {
        if(carworld.data_ready == 1) {
     a48:	e30149b4 	movw	r4, #6580	; 0x19b4
     a4c:	e3404000 	movt	r4, #0
            colour_t col;
            struct _carworld* data = get_carworld_data();
            carworld_to_colour(data, &col);
     a50:	e28d5004 	add	r5, sp, #4
    for(i = 0; i < VGA_WIDTH_BINS*VGA_HEIGHT_BINS; i++) {
        vga_set_segment(i, RED);
    }
    jtag_start_request();
    while(1) {
        if(carworld.data_ready == 1) {
     a54:	e5943310 	ldr	r3, [r4, #784]	; 0x310
     a58:	e3530001 	cmp	r3, #1
     a5c:	1a000007 	bne	a80 <main+0x94>
            colour_t col;
            struct _carworld* data = get_carworld_data();
     a60:	ebffff67 	bl	804 <get_carworld_data>
            carworld_to_colour(data, &col);
     a64:	e1a01005 	mov	r1, r5
     a68:	ebffff6b 	bl	81c <carworld_to_colour>
            jtag_start_request();
     a6c:	ebffff2f 	bl	730 <jtag_start_request>
            vga_set_current_segment(col);
     a70:	e8950007 	ldm	r5, {r0, r1, r2}
     a74:	ebffff16 	bl	6d4 <vga_set_current_segment>
            vga_draw_current_segment();
     a78:	ebffff20 	bl	700 <vga_draw_current_segment>
     a7c:	eafffff4 	b	a54 <main+0x68>
            // Note: they will handle overflows by just remaining at the first or last segment
            // vga_increment_selection()
            // vga_decrement_selection()
        }
        else {
            jtag_read_fifo();
     a80:	ebffff36 	bl	760 <jtag_read_fifo>
     a84:	eafffff2 	b	a54 <main+0x68>

00000a88 <__aeabi_frsub>:
     a88:	e2200102 	eor	r0, r0, #-2147483648	; 0x80000000
     a8c:	ea000000 	b	a94 <__addsf3>

00000a90 <__aeabi_fsub>:
     a90:	e2211102 	eor	r1, r1, #-2147483648	; 0x80000000

00000a94 <__addsf3>:
     a94:	e1b02080 	lsls	r2, r0, #1
     a98:	11b03081 	lslsne	r3, r1, #1
     a9c:	11320003 	teqne	r2, r3
     aa0:	11f0cc42 	mvnsne	ip, r2, asr #24
     aa4:	11f0cc43 	mvnsne	ip, r3, asr #24
     aa8:	0a000047 	beq	bcc <__addsf3+0x138>
     aac:	e1a02c22 	lsr	r2, r2, #24
     ab0:	e0723c23 	rsbs	r3, r2, r3, lsr #24
     ab4:	c0822003 	addgt	r2, r2, r3
     ab8:	c0201001 	eorgt	r1, r0, r1
     abc:	c0210000 	eorgt	r0, r1, r0
     ac0:	c0201001 	eorgt	r1, r0, r1
     ac4:	b2633000 	rsblt	r3, r3, #0
     ac8:	e3530019 	cmp	r3, #25
     acc:	812fff1e 	bxhi	lr
     ad0:	e3100102 	tst	r0, #-2147483648	; 0x80000000
     ad4:	e3800502 	orr	r0, r0, #8388608	; 0x800000
     ad8:	e3c004ff 	bic	r0, r0, #-16777216	; 0xff000000
     adc:	12600000 	rsbne	r0, r0, #0
     ae0:	e3110102 	tst	r1, #-2147483648	; 0x80000000
     ae4:	e3811502 	orr	r1, r1, #8388608	; 0x800000
     ae8:	e3c114ff 	bic	r1, r1, #-16777216	; 0xff000000
     aec:	12611000 	rsbne	r1, r1, #0
     af0:	e1320003 	teq	r2, r3
     af4:	0a00002e 	beq	bb4 <__addsf3+0x120>
     af8:	e2422001 	sub	r2, r2, #1
     afc:	e0900351 	adds	r0, r0, r1, asr r3
     b00:	e2633020 	rsb	r3, r3, #32
     b04:	e1a01311 	lsl	r1, r1, r3
     b08:	e2003102 	and	r3, r0, #-2147483648	; 0x80000000
     b0c:	5a000001 	bpl	b18 <__addsf3+0x84>
     b10:	e2711000 	rsbs	r1, r1, #0
     b14:	e2e00000 	rsc	r0, r0, #0
     b18:	e3500502 	cmp	r0, #8388608	; 0x800000
     b1c:	3a00000b 	bcc	b50 <__addsf3+0xbc>
     b20:	e3500401 	cmp	r0, #16777216	; 0x1000000
     b24:	3a000004 	bcc	b3c <__addsf3+0xa8>
     b28:	e1b000a0 	lsrs	r0, r0, #1
     b2c:	e1a01061 	rrx	r1, r1
     b30:	e2822001 	add	r2, r2, #1
     b34:	e35200fe 	cmp	r2, #254	; 0xfe
     b38:	2a000038 	bcs	c20 <__addsf3+0x18c>
     b3c:	e3510102 	cmp	r1, #-2147483648	; 0x80000000
     b40:	e0a00b82 	adc	r0, r0, r2, lsl #23
     b44:	03c00001 	biceq	r0, r0, #1
     b48:	e1800003 	orr	r0, r0, r3
     b4c:	e12fff1e 	bx	lr
     b50:	e1b01081 	lsls	r1, r1, #1
     b54:	e0a00000 	adc	r0, r0, r0
     b58:	e3100502 	tst	r0, #8388608	; 0x800000
     b5c:	e2422001 	sub	r2, r2, #1
     b60:	1afffff5 	bne	b3c <__addsf3+0xa8>
     b64:	e1b0c620 	lsrs	ip, r0, #12
     b68:	01a00600 	lsleq	r0, r0, #12
     b6c:	0242200c 	subeq	r2, r2, #12
     b70:	e31008ff 	tst	r0, #16711680	; 0xff0000
     b74:	01a00400 	lsleq	r0, r0, #8
     b78:	02422008 	subeq	r2, r2, #8
     b7c:	e310060f 	tst	r0, #15728640	; 0xf00000
     b80:	01a00200 	lsleq	r0, r0, #4
     b84:	02422004 	subeq	r2, r2, #4
     b88:	e3100503 	tst	r0, #12582912	; 0xc00000
     b8c:	01a00100 	lsleq	r0, r0, #2
     b90:	02422002 	subeq	r2, r2, #2
     b94:	e3500502 	cmp	r0, #8388608	; 0x800000
     b98:	31a00080 	lslcc	r0, r0, #1
     b9c:	e2d22000 	sbcs	r2, r2, #0
     ba0:	a0800b82 	addge	r0, r0, r2, lsl #23
     ba4:	b2622000 	rsblt	r2, r2, #0
     ba8:	a1800003 	orrge	r0, r0, r3
     bac:	b1830230 	orrlt	r0, r3, r0, lsr r2
     bb0:	e12fff1e 	bx	lr
     bb4:	e3320000 	teq	r2, #0
     bb8:	e2211502 	eor	r1, r1, #8388608	; 0x800000
     bbc:	02200502 	eoreq	r0, r0, #8388608	; 0x800000
     bc0:	02822001 	addeq	r2, r2, #1
     bc4:	12433001 	subne	r3, r3, #1
     bc8:	eaffffca 	b	af8 <__addsf3+0x64>
     bcc:	e1a03081 	lsl	r3, r1, #1
     bd0:	e1f0cc42 	mvns	ip, r2, asr #24
     bd4:	11f0cc43 	mvnsne	ip, r3, asr #24
     bd8:	0a000013 	beq	c2c <__addsf3+0x198>
     bdc:	e1320003 	teq	r2, r3
     be0:	0a000002 	beq	bf0 <__addsf3+0x15c>
     be4:	e3320000 	teq	r2, #0
     be8:	01a00001 	moveq	r0, r1
     bec:	e12fff1e 	bx	lr
     bf0:	e1300001 	teq	r0, r1
     bf4:	13a00000 	movne	r0, #0
     bf8:	112fff1e 	bxne	lr
     bfc:	e31204ff 	tst	r2, #-16777216	; 0xff000000
     c00:	1a000002 	bne	c10 <__addsf3+0x17c>
     c04:	e1b00080 	lsls	r0, r0, #1
     c08:	23800102 	orrcs	r0, r0, #-2147483648	; 0x80000000
     c0c:	e12fff1e 	bx	lr
     c10:	e2922402 	adds	r2, r2, #33554432	; 0x2000000
     c14:	32800502 	addcc	r0, r0, #8388608	; 0x800000
     c18:	312fff1e 	bxcc	lr
     c1c:	e2003102 	and	r3, r0, #-2147483648	; 0x80000000
     c20:	e383047f 	orr	r0, r3, #2130706432	; 0x7f000000
     c24:	e3800502 	orr	r0, r0, #8388608	; 0x800000
     c28:	e12fff1e 	bx	lr
     c2c:	e1f02c42 	mvns	r2, r2, asr #24
     c30:	11a00001 	movne	r0, r1
     c34:	01f03c43 	mvnseq	r3, r3, asr #24
     c38:	11a01000 	movne	r1, r0
     c3c:	e1b02480 	lsls	r2, r0, #9
     c40:	01b03481 	lslseq	r3, r1, #9
     c44:	01300001 	teqeq	r0, r1
     c48:	13800501 	orrne	r0, r0, #4194304	; 0x400000
     c4c:	e12fff1e 	bx	lr

00000c50 <__aeabi_ui2f>:
     c50:	e3a03000 	mov	r3, #0
     c54:	ea000001 	b	c60 <__aeabi_i2f+0x8>

00000c58 <__aeabi_i2f>:
     c58:	e2103102 	ands	r3, r0, #-2147483648	; 0x80000000
     c5c:	42600000 	rsbmi	r0, r0, #0
     c60:	e1b0c000 	movs	ip, r0
     c64:	012fff1e 	bxeq	lr
     c68:	e383344b 	orr	r3, r3, #1258291200	; 0x4b000000
     c6c:	e1a01000 	mov	r1, r0
     c70:	e3a00000 	mov	r0, #0
     c74:	ea00000f 	b	cb8 <__aeabi_l2f+0x30>

00000c78 <__aeabi_ul2f>:
     c78:	e1902001 	orrs	r2, r0, r1
     c7c:	012fff1e 	bxeq	lr
     c80:	e3a03000 	mov	r3, #0
     c84:	ea000005 	b	ca0 <__aeabi_l2f+0x18>

00000c88 <__aeabi_l2f>:
     c88:	e1902001 	orrs	r2, r0, r1
     c8c:	012fff1e 	bxeq	lr
     c90:	e2113102 	ands	r3, r1, #-2147483648	; 0x80000000
     c94:	5a000001 	bpl	ca0 <__aeabi_l2f+0x18>
     c98:	e2700000 	rsbs	r0, r0, #0
     c9c:	e2e11000 	rsc	r1, r1, #0
     ca0:	e1b0c001 	movs	ip, r1
     ca4:	01a0c000 	moveq	ip, r0
     ca8:	01a01000 	moveq	r1, r0
     cac:	03a00000 	moveq	r0, #0
     cb0:	e383345b 	orr	r3, r3, #1526726656	; 0x5b000000
     cb4:	02433201 	subeq	r3, r3, #268435456	; 0x10000000
     cb8:	e2433502 	sub	r3, r3, #8388608	; 0x800000
     cbc:	e3a02017 	mov	r2, #23
     cc0:	e35c0801 	cmp	ip, #65536	; 0x10000
     cc4:	21a0c82c 	lsrcs	ip, ip, #16
     cc8:	22422010 	subcs	r2, r2, #16
     ccc:	e35c0c01 	cmp	ip, #256	; 0x100
     cd0:	21a0c42c 	lsrcs	ip, ip, #8
     cd4:	22422008 	subcs	r2, r2, #8
     cd8:	e35c0010 	cmp	ip, #16
     cdc:	21a0c22c 	lsrcs	ip, ip, #4
     ce0:	22422004 	subcs	r2, r2, #4
     ce4:	e35c0004 	cmp	ip, #4
     ce8:	22422002 	subcs	r2, r2, #2
     cec:	304220ac 	subcc	r2, r2, ip, lsr #1
     cf0:	e05221ac 	subs	r2, r2, ip, lsr #3
     cf4:	e0433b82 	sub	r3, r3, r2, lsl #23
     cf8:	ba000006 	blt	d18 <__aeabi_l2f+0x90>
     cfc:	e0833211 	add	r3, r3, r1, lsl r2
     d00:	e1a0c210 	lsl	ip, r0, r2
     d04:	e2622020 	rsb	r2, r2, #32
     d08:	e35c0102 	cmp	ip, #-2147483648	; 0x80000000
     d0c:	e0a30230 	adc	r0, r3, r0, lsr r2
     d10:	03c00001 	biceq	r0, r0, #1
     d14:	e12fff1e 	bx	lr
     d18:	e2822020 	add	r2, r2, #32
     d1c:	e1a0c211 	lsl	ip, r1, r2
     d20:	e2622020 	rsb	r2, r2, #32
     d24:	e190008c 	orrs	r0, r0, ip, lsl #1
     d28:	e0a30231 	adc	r0, r3, r1, lsr r2
     d2c:	01c00fac 	biceq	r0, r0, ip, lsr #31
     d30:	e12fff1e 	bx	lr

00000d34 <__aeabi_fmul>:
     d34:	e3a0c0ff 	mov	ip, #255	; 0xff
     d38:	e01c2ba0 	ands	r2, ip, r0, lsr #23
     d3c:	101c3ba1 	andsne	r3, ip, r1, lsr #23
     d40:	1132000c 	teqne	r2, ip
     d44:	1133000c 	teqne	r3, ip
     d48:	0a00003e 	beq	e48 <__aeabi_fmul+0x114>
     d4c:	e0822003 	add	r2, r2, r3
     d50:	e020c001 	eor	ip, r0, r1
     d54:	e1b00480 	lsls	r0, r0, #9
     d58:	11b01481 	lslsne	r1, r1, #9
     d5c:	0a000010 	beq	da4 <__aeabi_fmul+0x70>
     d60:	e3a03302 	mov	r3, #134217728	; 0x8000000
     d64:	e18302a0 	orr	r0, r3, r0, lsr #5
     d68:	e18312a1 	orr	r1, r3, r1, lsr #5
     d6c:	e0813190 	umull	r3, r1, r0, r1
     d70:	e20c0102 	and	r0, ip, #-2147483648	; 0x80000000
     d74:	e3510502 	cmp	r1, #8388608	; 0x800000
     d78:	31a01081 	lslcc	r1, r1, #1
     d7c:	31811fa3 	orrcc	r1, r1, r3, lsr #31
     d80:	31a03083 	lslcc	r3, r3, #1
     d84:	e1800001 	orr	r0, r0, r1
     d88:	e2c2207f 	sbc	r2, r2, #127	; 0x7f
     d8c:	e35200fd 	cmp	r2, #253	; 0xfd
     d90:	8a00000f 	bhi	dd4 <__aeabi_fmul+0xa0>
     d94:	e3530102 	cmp	r3, #-2147483648	; 0x80000000
     d98:	e0a00b82 	adc	r0, r0, r2, lsl #23
     d9c:	03c00001 	biceq	r0, r0, #1
     da0:	e12fff1e 	bx	lr
     da4:	e3300000 	teq	r0, #0
     da8:	e20cc102 	and	ip, ip, #-2147483648	; 0x80000000
     dac:	01a01481 	lsleq	r1, r1, #9
     db0:	e18c04a0 	orr	r0, ip, r0, lsr #9
     db4:	e18004a1 	orr	r0, r0, r1, lsr #9
     db8:	e252207f 	subs	r2, r2, #127	; 0x7f
     dbc:	c27230ff 	rsbsgt	r3, r2, #255	; 0xff
     dc0:	c1800b82 	orrgt	r0, r0, r2, lsl #23
     dc4:	c12fff1e 	bxgt	lr
     dc8:	e3800502 	orr	r0, r0, #8388608	; 0x800000
     dcc:	e3a03000 	mov	r3, #0
     dd0:	e2522001 	subs	r2, r2, #1
     dd4:	ca000035 	bgt	eb0 <__aeabi_fmul+0x17c>
     dd8:	e3720019 	cmn	r2, #25
     ddc:	d2000102 	andle	r0, r0, #-2147483648	; 0x80000000
     de0:	d12fff1e 	bxle	lr
     de4:	e2622000 	rsb	r2, r2, #0
     de8:	e1b01080 	lsls	r1, r0, #1
     dec:	e1a01231 	lsr	r1, r1, r2
     df0:	e2622020 	rsb	r2, r2, #32
     df4:	e1a0c210 	lsl	ip, r0, r2
     df8:	e1b00061 	rrxs	r0, r1
     dfc:	e2a00000 	adc	r0, r0, #0
     e00:	e193308c 	orrs	r3, r3, ip, lsl #1
     e04:	01c00fac 	biceq	r0, r0, ip, lsr #31
     e08:	e12fff1e 	bx	lr
     e0c:	e3320000 	teq	r2, #0
     e10:	e200c102 	and	ip, r0, #-2147483648	; 0x80000000
     e14:	01a00080 	lsleq	r0, r0, #1
     e18:	03100502 	tsteq	r0, #8388608	; 0x800000
     e1c:	02422001 	subeq	r2, r2, #1
     e20:	0afffffb 	beq	e14 <__aeabi_fmul+0xe0>
     e24:	e180000c 	orr	r0, r0, ip
     e28:	e3330000 	teq	r3, #0
     e2c:	e201c102 	and	ip, r1, #-2147483648	; 0x80000000
     e30:	01a01081 	lsleq	r1, r1, #1
     e34:	03110502 	tsteq	r1, #8388608	; 0x800000
     e38:	02433001 	subeq	r3, r3, #1
     e3c:	0afffffb 	beq	e30 <__aeabi_fmul+0xfc>
     e40:	e181100c 	orr	r1, r1, ip
     e44:	eaffffc0 	b	d4c <__aeabi_fmul+0x18>
     e48:	e00c3ba1 	and	r3, ip, r1, lsr #23
     e4c:	e132000c 	teq	r2, ip
     e50:	1133000c 	teqne	r3, ip
     e54:	0a000005 	beq	e70 <__aeabi_fmul+0x13c>
     e58:	e3d0c102 	bics	ip, r0, #-2147483648	; 0x80000000
     e5c:	13d1c102 	bicsne	ip, r1, #-2147483648	; 0x80000000
     e60:	1affffe9 	bne	e0c <__aeabi_fmul+0xd8>
     e64:	e0200001 	eor	r0, r0, r1
     e68:	e2000102 	and	r0, r0, #-2147483648	; 0x80000000
     e6c:	e12fff1e 	bx	lr
     e70:	e3300000 	teq	r0, #0
     e74:	13300102 	teqne	r0, #-2147483648	; 0x80000000
     e78:	01a00001 	moveq	r0, r1
     e7c:	13310000 	teqne	r1, #0
     e80:	13310102 	teqne	r1, #-2147483648	; 0x80000000
     e84:	0a00000d 	beq	ec0 <__aeabi_fmul+0x18c>
     e88:	e132000c 	teq	r2, ip
     e8c:	1a000001 	bne	e98 <__aeabi_fmul+0x164>
     e90:	e1b02480 	lsls	r2, r0, #9
     e94:	1a000009 	bne	ec0 <__aeabi_fmul+0x18c>
     e98:	e133000c 	teq	r3, ip
     e9c:	1a000002 	bne	eac <__aeabi_fmul+0x178>
     ea0:	e1b03481 	lsls	r3, r1, #9
     ea4:	11a00001 	movne	r0, r1
     ea8:	1a000004 	bne	ec0 <__aeabi_fmul+0x18c>
     eac:	e0200001 	eor	r0, r0, r1
     eb0:	e2000102 	and	r0, r0, #-2147483648	; 0x80000000
     eb4:	e380047f 	orr	r0, r0, #2130706432	; 0x7f000000
     eb8:	e3800502 	orr	r0, r0, #8388608	; 0x800000
     ebc:	e12fff1e 	bx	lr
     ec0:	e380047f 	orr	r0, r0, #2130706432	; 0x7f000000
     ec4:	e3800503 	orr	r0, r0, #12582912	; 0xc00000
     ec8:	e12fff1e 	bx	lr

00000ecc <__aeabi_fdiv>:
     ecc:	e3a0c0ff 	mov	ip, #255	; 0xff
     ed0:	e01c2ba0 	ands	r2, ip, r0, lsr #23
     ed4:	101c3ba1 	andsne	r3, ip, r1, lsr #23
     ed8:	1132000c 	teqne	r2, ip
     edc:	1133000c 	teqne	r3, ip
     ee0:	0a00003a 	beq	fd0 <__aeabi_fdiv+0x104>
     ee4:	e0422003 	sub	r2, r2, r3
     ee8:	e020c001 	eor	ip, r0, r1
     eec:	e1b01481 	lsls	r1, r1, #9
     ef0:	e1a00480 	lsl	r0, r0, #9
     ef4:	0a00001c 	beq	f6c <__aeabi_fdiv+0xa0>
     ef8:	e3a03201 	mov	r3, #268435456	; 0x10000000
     efc:	e1831221 	orr	r1, r3, r1, lsr #4
     f00:	e1833220 	orr	r3, r3, r0, lsr #4
     f04:	e20c0102 	and	r0, ip, #-2147483648	; 0x80000000
     f08:	e1530001 	cmp	r3, r1
     f0c:	31a03083 	lslcc	r3, r3, #1
     f10:	e2a2207d 	adc	r2, r2, #125	; 0x7d
     f14:	e3a0c502 	mov	ip, #8388608	; 0x800000
     f18:	e1530001 	cmp	r3, r1
     f1c:	20433001 	subcs	r3, r3, r1
     f20:	2180000c 	orrcs	r0, r0, ip
     f24:	e15300a1 	cmp	r3, r1, lsr #1
     f28:	204330a1 	subcs	r3, r3, r1, lsr #1
     f2c:	218000ac 	orrcs	r0, r0, ip, lsr #1
     f30:	e1530121 	cmp	r3, r1, lsr #2
     f34:	20433121 	subcs	r3, r3, r1, lsr #2
     f38:	2180012c 	orrcs	r0, r0, ip, lsr #2
     f3c:	e15301a1 	cmp	r3, r1, lsr #3
     f40:	204331a1 	subcs	r3, r3, r1, lsr #3
     f44:	218001ac 	orrcs	r0, r0, ip, lsr #3
     f48:	e1b03203 	lsls	r3, r3, #4
     f4c:	11b0c22c 	lsrsne	ip, ip, #4
     f50:	1afffff0 	bne	f18 <__aeabi_fdiv+0x4c>
     f54:	e35200fd 	cmp	r2, #253	; 0xfd
     f58:	8affff9d 	bhi	dd4 <__aeabi_fmul+0xa0>
     f5c:	e1530001 	cmp	r3, r1
     f60:	e0a00b82 	adc	r0, r0, r2, lsl #23
     f64:	03c00001 	biceq	r0, r0, #1
     f68:	e12fff1e 	bx	lr
     f6c:	e20cc102 	and	ip, ip, #-2147483648	; 0x80000000
     f70:	e18c04a0 	orr	r0, ip, r0, lsr #9
     f74:	e292207f 	adds	r2, r2, #127	; 0x7f
     f78:	c27230ff 	rsbsgt	r3, r2, #255	; 0xff
     f7c:	c1800b82 	orrgt	r0, r0, r2, lsl #23
     f80:	c12fff1e 	bxgt	lr
     f84:	e3800502 	orr	r0, r0, #8388608	; 0x800000
     f88:	e3a03000 	mov	r3, #0
     f8c:	e2522001 	subs	r2, r2, #1
     f90:	eaffff8f 	b	dd4 <__aeabi_fmul+0xa0>
     f94:	e3320000 	teq	r2, #0
     f98:	e200c102 	and	ip, r0, #-2147483648	; 0x80000000
     f9c:	01a00080 	lsleq	r0, r0, #1
     fa0:	03100502 	tsteq	r0, #8388608	; 0x800000
     fa4:	02422001 	subeq	r2, r2, #1
     fa8:	0afffffb 	beq	f9c <__aeabi_fdiv+0xd0>
     fac:	e180000c 	orr	r0, r0, ip
     fb0:	e3330000 	teq	r3, #0
     fb4:	e201c102 	and	ip, r1, #-2147483648	; 0x80000000
     fb8:	01a01081 	lsleq	r1, r1, #1
     fbc:	03110502 	tsteq	r1, #8388608	; 0x800000
     fc0:	02433001 	subeq	r3, r3, #1
     fc4:	0afffffb 	beq	fb8 <__aeabi_fdiv+0xec>
     fc8:	e181100c 	orr	r1, r1, ip
     fcc:	eaffffc4 	b	ee4 <__aeabi_fdiv+0x18>
     fd0:	e00c3ba1 	and	r3, ip, r1, lsr #23
     fd4:	e132000c 	teq	r2, ip
     fd8:	1a000005 	bne	ff4 <__aeabi_fdiv+0x128>
     fdc:	e1b02480 	lsls	r2, r0, #9
     fe0:	1affffb6 	bne	ec0 <__aeabi_fmul+0x18c>
     fe4:	e133000c 	teq	r3, ip
     fe8:	1affffaf 	bne	eac <__aeabi_fmul+0x178>
     fec:	e1a00001 	mov	r0, r1
     ff0:	eaffffb2 	b	ec0 <__aeabi_fmul+0x18c>
     ff4:	e133000c 	teq	r3, ip
     ff8:	1a000003 	bne	100c <__aeabi_fdiv+0x140>
     ffc:	e1b03481 	lsls	r3, r1, #9
    1000:	0affff97 	beq	e64 <__aeabi_fmul+0x130>
    1004:	e1a00001 	mov	r0, r1
    1008:	eaffffac 	b	ec0 <__aeabi_fmul+0x18c>
    100c:	e3d0c102 	bics	ip, r0, #-2147483648	; 0x80000000
    1010:	13d1c102 	bicsne	ip, r1, #-2147483648	; 0x80000000
    1014:	1affffde 	bne	f94 <__aeabi_fdiv+0xc8>
    1018:	e3d02102 	bics	r2, r0, #-2147483648	; 0x80000000
    101c:	1affffa2 	bne	eac <__aeabi_fmul+0x178>
    1020:	e3d13102 	bics	r3, r1, #-2147483648	; 0x80000000
    1024:	1affff8e 	bne	e64 <__aeabi_fmul+0x130>
    1028:	eaffffa4 	b	ec0 <__aeabi_fmul+0x18c>

0000102c <__aeabi_f2iz>:
    102c:	e1a02080 	lsl	r2, r0, #1
    1030:	e352047f 	cmp	r2, #2130706432	; 0x7f000000
    1034:	3a000008 	bcc	105c <__aeabi_f2iz+0x30>
    1038:	e3a0309e 	mov	r3, #158	; 0x9e
    103c:	e0532c22 	subs	r2, r3, r2, lsr #24
    1040:	9a000007 	bls	1064 <__aeabi_f2iz+0x38>
    1044:	e1a03400 	lsl	r3, r0, #8
    1048:	e3833102 	orr	r3, r3, #-2147483648	; 0x80000000
    104c:	e3100102 	tst	r0, #-2147483648	; 0x80000000
    1050:	e1a00233 	lsr	r0, r3, r2
    1054:	12600000 	rsbne	r0, r0, #0
    1058:	e12fff1e 	bx	lr
    105c:	e3a00000 	mov	r0, #0
    1060:	e12fff1e 	bx	lr
    1064:	e3720061 	cmn	r2, #97	; 0x61
    1068:	1a000001 	bne	1074 <__aeabi_f2iz+0x48>
    106c:	e1b02480 	lsls	r2, r0, #9
    1070:	1a000002 	bne	1080 <__aeabi_f2iz+0x54>
    1074:	e2100102 	ands	r0, r0, #-2147483648	; 0x80000000
    1078:	03e00102 	mvneq	r0, #-2147483648	; 0x80000000
    107c:	e12fff1e 	bx	lr
    1080:	e3a00000 	mov	r0, #0
    1084:	e12fff1e 	bx	lr

00001088 <atexit>:
    1088:	e1a01000 	mov	r1, r0
    108c:	e3a00000 	mov	r0, #0
    1090:	e92d4008 	push	{r3, lr}
    1094:	e1a02000 	mov	r2, r0
    1098:	e1a03000 	mov	r3, r0
    109c:	eb00000e 	bl	10dc <__register_exitproc>
    10a0:	e8bd4008 	pop	{r3, lr}
    10a4:	e12fff1e 	bx	lr

000010a8 <exit>:
    10a8:	e92d4008 	push	{r3, lr}
    10ac:	e3a01000 	mov	r1, #0
    10b0:	e1a04000 	mov	r4, r0
    10b4:	eb000045 	bl	11d0 <__call_exitprocs>
    10b8:	e59f3018 	ldr	r3, [pc, #24]	; 10d8 <exit+0x30>
    10bc:	e5930000 	ldr	r0, [r3]
    10c0:	e590303c 	ldr	r3, [r0, #60]	; 0x3c
    10c4:	e3530000 	cmp	r3, #0
    10c8:	11a0e00f 	movne	lr, pc
    10cc:	112fff13 	bxne	r3
    10d0:	e1a00004 	mov	r0, r4
    10d4:	eb0000c9 	bl	1400 <_exit>
    10d8:	00001500 	.word	0x00001500

000010dc <__register_exitproc>:
    10dc:	e59fc0e4 	ldr	ip, [pc, #228]	; 11c8 <__register_exitproc+0xec>
    10e0:	e92d41f0 	push	{r4, r5, r6, r7, r8, lr}
    10e4:	e59c4000 	ldr	r4, [ip]
    10e8:	e594c148 	ldr	ip, [r4, #328]	; 0x148
    10ec:	e35c0000 	cmp	ip, #0
    10f0:	0284cf53 	addeq	ip, r4, #332	; 0x14c
    10f4:	e59c5004 	ldr	r5, [ip, #4]
    10f8:	0584c148 	streq	ip, [r4, #328]	; 0x148
    10fc:	e355001f 	cmp	r5, #31
    1100:	e24dd010 	sub	sp, sp, #16
    1104:	e1a06000 	mov	r6, r0
    1108:	da000015 	ble	1164 <__register_exitproc+0x88>
    110c:	e59f00b8 	ldr	r0, [pc, #184]	; 11cc <__register_exitproc+0xf0>
    1110:	e3500000 	cmp	r0, #0
    1114:	1a000001 	bne	1120 <__register_exitproc+0x44>
    1118:	e3e00000 	mvn	r0, #0
    111c:	ea000018 	b	1184 <__register_exitproc+0xa8>
    1120:	e3a00e19 	mov	r0, #400	; 0x190
    1124:	e58d100c 	str	r1, [sp, #12]
    1128:	e58d2008 	str	r2, [sp, #8]
    112c:	e58d3004 	str	r3, [sp, #4]
    1130:	e320f000 	nop	{0}
    1134:	e250c000 	subs	ip, r0, #0
    1138:	e59d100c 	ldr	r1, [sp, #12]
    113c:	e59d2008 	ldr	r2, [sp, #8]
    1140:	e59d3004 	ldr	r3, [sp, #4]
    1144:	0afffff3 	beq	1118 <__register_exitproc+0x3c>
    1148:	e5945148 	ldr	r5, [r4, #328]	; 0x148
    114c:	e3a00000 	mov	r0, #0
    1150:	e58c0004 	str	r0, [ip, #4]
    1154:	e58c5000 	str	r5, [ip]
    1158:	e584c148 	str	ip, [r4, #328]	; 0x148
    115c:	e58c0188 	str	r0, [ip, #392]	; 0x188
    1160:	e58c018c 	str	r0, [ip, #396]	; 0x18c
    1164:	e3560000 	cmp	r6, #0
    1168:	e59c4004 	ldr	r4, [ip, #4]
    116c:	1a000007 	bne	1190 <__register_exitproc+0xb4>
    1170:	e2843002 	add	r3, r4, #2
    1174:	e2844001 	add	r4, r4, #1
    1178:	e78c1103 	str	r1, [ip, r3, lsl #2]
    117c:	e58c4004 	str	r4, [ip, #4]
    1180:	e3a00000 	mov	r0, #0
    1184:	e28dd010 	add	sp, sp, #16
    1188:	e8bd41f0 	pop	{r4, r5, r6, r7, r8, lr}
    118c:	e12fff1e 	bx	lr
    1190:	e3a00001 	mov	r0, #1
    1194:	e1a00410 	lsl	r0, r0, r4
    1198:	e08c8104 	add	r8, ip, r4, lsl #2
    119c:	e3560002 	cmp	r6, #2
    11a0:	e59c7188 	ldr	r7, [ip, #392]	; 0x188
    11a4:	e5883108 	str	r3, [r8, #264]	; 0x108
    11a8:	059c318c 	ldreq	r3, [ip, #396]	; 0x18c
    11ac:	e1877000 	orr	r7, r7, r0
    11b0:	01830000 	orreq	r0, r3, r0
    11b4:	e1a05008 	mov	r5, r8
    11b8:	e5882088 	str	r2, [r8, #136]	; 0x88
    11bc:	e58c7188 	str	r7, [ip, #392]	; 0x188
    11c0:	058c018c 	streq	r0, [ip, #396]	; 0x18c
    11c4:	eaffffe9 	b	1170 <__register_exitproc+0x94>
    11c8:	00001500 	.word	0x00001500
    11cc:	00000000 	.word	0x00000000

000011d0 <__call_exitprocs>:
    11d0:	e92d4ff0 	push	{r4, r5, r6, r7, r8, r9, sl, fp, lr}
    11d4:	e59f3168 	ldr	r3, [pc, #360]	; 1344 <__call_exitprocs+0x174>
    11d8:	e5933000 	ldr	r3, [r3]
    11dc:	e24dd014 	sub	sp, sp, #20
    11e0:	e58d3004 	str	r3, [sp, #4]
    11e4:	e2833f52 	add	r3, r3, #328	; 0x148
    11e8:	e58d0008 	str	r0, [sp, #8]
    11ec:	e58d300c 	str	r3, [sp, #12]
    11f0:	e1a07001 	mov	r7, r1
    11f4:	e3a08001 	mov	r8, #1
    11f8:	e59d3004 	ldr	r3, [sp, #4]
    11fc:	e5936148 	ldr	r6, [r3, #328]	; 0x148
    1200:	e3560000 	cmp	r6, #0
    1204:	e59db00c 	ldr	fp, [sp, #12]
    1208:	0a000033 	beq	12dc <__call_exitprocs+0x10c>
    120c:	e5965004 	ldr	r5, [r6, #4]
    1210:	e2554001 	subs	r4, r5, #1
    1214:	5286a088 	addpl	sl, r6, #136	; 0x88
    1218:	5285501f 	addpl	r5, r5, #31
    121c:	508a5105 	addpl	r5, sl, r5, lsl #2
    1220:	5a000007 	bpl	1244 <__call_exitprocs+0x74>
    1224:	ea000029 	b	12d0 <__call_exitprocs+0x100>
    1228:	e5953000 	ldr	r3, [r5]
    122c:	e1530007 	cmp	r3, r7
    1230:	0a000005 	beq	124c <__call_exitprocs+0x7c>
    1234:	e2444001 	sub	r4, r4, #1
    1238:	e3740001 	cmn	r4, #1
    123c:	e2455004 	sub	r5, r5, #4
    1240:	0a000022 	beq	12d0 <__call_exitprocs+0x100>
    1244:	e3570000 	cmp	r7, #0
    1248:	1afffff6 	bne	1228 <__call_exitprocs+0x58>
    124c:	e5963004 	ldr	r3, [r6, #4]
    1250:	e06a2005 	rsb	r2, sl, r5
    1254:	e2433001 	sub	r3, r3, #1
    1258:	e0862002 	add	r2, r6, r2
    125c:	e1530004 	cmp	r3, r4
    1260:	e5123078 	ldr	r3, [r2, #-120]	; 0xffffff88
    1264:	13a01000 	movne	r1, #0
    1268:	05864004 	streq	r4, [r6, #4]
    126c:	15021078 	strne	r1, [r2, #-120]	; 0xffffff88
    1270:	e3530000 	cmp	r3, #0
    1274:	0affffee 	beq	1234 <__call_exitprocs+0x64>
    1278:	e1a02418 	lsl	r2, r8, r4
    127c:	e5961188 	ldr	r1, [r6, #392]	; 0x188
    1280:	e1120001 	tst	r2, r1
    1284:	e5969004 	ldr	r9, [r6, #4]
    1288:	0a000016 	beq	12e8 <__call_exitprocs+0x118>
    128c:	e596118c 	ldr	r1, [r6, #396]	; 0x18c
    1290:	e1120001 	tst	r2, r1
    1294:	1a000016 	bne	12f4 <__call_exitprocs+0x124>
    1298:	e59d0008 	ldr	r0, [sp, #8]
    129c:	e5151080 	ldr	r1, [r5, #-128]	; 0xffffff80
    12a0:	e1a0e00f 	mov	lr, pc
    12a4:	e12fff13 	bx	r3
    12a8:	e5963004 	ldr	r3, [r6, #4]
    12ac:	e1530009 	cmp	r3, r9
    12b0:	1affffd0 	bne	11f8 <__call_exitprocs+0x28>
    12b4:	e59b3000 	ldr	r3, [fp]
    12b8:	e1530006 	cmp	r3, r6
    12bc:	1affffcd 	bne	11f8 <__call_exitprocs+0x28>
    12c0:	e2444001 	sub	r4, r4, #1
    12c4:	e3740001 	cmn	r4, #1
    12c8:	e2455004 	sub	r5, r5, #4
    12cc:	1affffdc 	bne	1244 <__call_exitprocs+0x74>
    12d0:	e59f1070 	ldr	r1, [pc, #112]	; 1348 <__call_exitprocs+0x178>
    12d4:	e3510000 	cmp	r1, #0
    12d8:	1a000009 	bne	1304 <__call_exitprocs+0x134>
    12dc:	e28dd014 	add	sp, sp, #20
    12e0:	e8bd4ff0 	pop	{r4, r5, r6, r7, r8, r9, sl, fp, lr}
    12e4:	e12fff1e 	bx	lr
    12e8:	e1a0e00f 	mov	lr, pc
    12ec:	e12fff13 	bx	r3
    12f0:	eaffffec 	b	12a8 <__call_exitprocs+0xd8>
    12f4:	e5150080 	ldr	r0, [r5, #-128]	; 0xffffff80
    12f8:	e1a0e00f 	mov	lr, pc
    12fc:	e12fff13 	bx	r3
    1300:	eaffffe8 	b	12a8 <__call_exitprocs+0xd8>
    1304:	e5963004 	ldr	r3, [r6, #4]
    1308:	e3530000 	cmp	r3, #0
    130c:	e5963000 	ldr	r3, [r6]
    1310:	1a000008 	bne	1338 <__call_exitprocs+0x168>
    1314:	e3530000 	cmp	r3, #0
    1318:	0a000006 	beq	1338 <__call_exitprocs+0x168>
    131c:	e1a00006 	mov	r0, r6
    1320:	e58b3000 	str	r3, [fp]
    1324:	e320f000 	nop	{0}
    1328:	e59b6000 	ldr	r6, [fp]
    132c:	e3560000 	cmp	r6, #0
    1330:	1affffb5 	bne	120c <__call_exitprocs+0x3c>
    1334:	eaffffe8 	b	12dc <__call_exitprocs+0x10c>
    1338:	e1a0b006 	mov	fp, r6
    133c:	e1a06003 	mov	r6, r3
    1340:	eafffff9 	b	132c <__call_exitprocs+0x15c>
    1344:	00001500 	.word	0x00001500
    1348:	00000000 	.word	0x00000000

0000134c <register_fini>:
    134c:	e92d4008 	push	{r3, lr}
    1350:	e59f3010 	ldr	r3, [pc, #16]	; 1368 <register_fini+0x1c>
    1354:	e3530000 	cmp	r3, #0
    1358:	159f000c 	ldrne	r0, [pc, #12]	; 136c <register_fini+0x20>
    135c:	1bffff49 	blne	1088 <atexit>
    1360:	e8bd4008 	pop	{r3, lr}
    1364:	e12fff1e 	bx	lr
    1368:	00001528 	.word	0x00001528
    136c:	00001370 	.word	0x00001370

00001370 <__libc_fini_array>:
    1370:	e92d4038 	push	{r3, r4, r5, lr}
    1374:	e59f5030 	ldr	r5, [pc, #48]	; 13ac <__libc_fini_array+0x3c>
    1378:	e59f4030 	ldr	r4, [pc, #48]	; 13b0 <__libc_fini_array+0x40>
    137c:	e0654004 	rsb	r4, r5, r4
    1380:	e1b04144 	asrs	r4, r4, #2
    1384:	10855104 	addne	r5, r5, r4, lsl #2
    1388:	0a000004 	beq	13a0 <__libc_fini_array+0x30>
    138c:	e5353004 	ldr	r3, [r5, #-4]!
    1390:	e1a0e00f 	mov	lr, pc
    1394:	e12fff13 	bx	r3
    1398:	e2544001 	subs	r4, r4, #1
    139c:	1afffffa 	bne	138c <__libc_fini_array+0x1c>
    13a0:	eb000060 	bl	1528 <__libc_fini>
    13a4:	e8bd4038 	pop	{r3, r4, r5, lr}
    13a8:	e12fff1e 	bx	lr
    13ac:	00001540 	.word	0x00001540
    13b0:	00001544 	.word	0x00001544

000013b4 <__cs3_premain>:
    13b4:	e92d4008 	push	{r3, lr}
    13b8:	eb000017 	bl	141c <__libc_init_array>
    13bc:	e59f3030 	ldr	r3, [pc, #48]	; 13f4 <__cs3_premain+0x40>
    13c0:	e3530000 	cmp	r3, #0
    13c4:	15930000 	ldrne	r0, [r3]
    13c8:	01a00003 	moveq	r0, r3
    13cc:	e59f3024 	ldr	r3, [pc, #36]	; 13f8 <__cs3_premain+0x44>
    13d0:	e3530000 	cmp	r3, #0
    13d4:	15931000 	ldrne	r1, [r3]
    13d8:	01a01003 	moveq	r1, r3
    13dc:	e3a02000 	mov	r2, #0
    13e0:	ebfffd81 	bl	9ec <main>
    13e4:	e59f3010 	ldr	r3, [pc, #16]	; 13fc <__cs3_premain+0x48>
    13e8:	e3530000 	cmp	r3, #0
    13ec:	1bffff2d 	blne	10a8 <exit>
    13f0:	eafffffe 	b	13f0 <__cs3_premain+0x3c>
	...
    13fc:	000010a8 	.word	0x000010a8

00001400 <_exit>:
    1400:	e52de004 	push	{lr}		; (str lr, [sp, #-4]!)
    1404:	e3a00018 	mov	r0, #24
    1408:	e59f1004 	ldr	r1, [pc, #4]	; 1414 <_exit+0x14>
    140c:	ef123456 	svc	0x00123456
    1410:	eafffffe 	b	1410 <_exit+0x10>
    1414:	00020026 	.word	0x00020026

00001418 <__cs3_isr_interrupt>:
    1418:	eafffffe 	b	1418 <__cs3_isr_interrupt>

0000141c <__libc_init_array>:
    141c:	e92d4070 	push	{r4, r5, r6, lr}
    1420:	e59f506c 	ldr	r5, [pc, #108]	; 1494 <__libc_init_array+0x78>
    1424:	e59f606c 	ldr	r6, [pc, #108]	; 1498 <__libc_init_array+0x7c>
    1428:	e0656006 	rsb	r6, r5, r6
    142c:	e1b06146 	asrs	r6, r6, #2
    1430:	12455004 	subne	r5, r5, #4
    1434:	13a04000 	movne	r4, #0
    1438:	0a000005 	beq	1454 <__libc_init_array+0x38>
    143c:	e5b53004 	ldr	r3, [r5, #4]!
    1440:	e2844001 	add	r4, r4, #1
    1444:	e1a0e00f 	mov	lr, pc
    1448:	e12fff13 	bx	r3
    144c:	e1560004 	cmp	r6, r4
    1450:	1afffff9 	bne	143c <__libc_init_array+0x20>
    1454:	e59f5040 	ldr	r5, [pc, #64]	; 149c <__libc_init_array+0x80>
    1458:	e59f6040 	ldr	r6, [pc, #64]	; 14a0 <__libc_init_array+0x84>
    145c:	e0656006 	rsb	r6, r5, r6
    1460:	eb000028 	bl	1508 <_init>
    1464:	e1b06146 	asrs	r6, r6, #2
    1468:	12455004 	subne	r5, r5, #4
    146c:	13a04000 	movne	r4, #0
    1470:	0a000005 	beq	148c <__libc_init_array+0x70>
    1474:	e5b53004 	ldr	r3, [r5, #4]!
    1478:	e2844001 	add	r4, r4, #1
    147c:	e1a0e00f 	mov	lr, pc
    1480:	e12fff13 	bx	r3
    1484:	e1560004 	cmp	r6, r4
    1488:	1afffff9 	bne	1474 <__libc_init_array+0x58>
    148c:	e8bd4070 	pop	{r4, r5, r6, lr}
    1490:	e12fff1e 	bx	lr
    1494:	00001520 	.word	0x00001520
    1498:	00001520 	.word	0x00001520
    149c:	00001520 	.word	0x00001520
    14a0:	00001528 	.word	0x00001528
